
bd/src/crc32/crc32:     file format elf32-littleriscv


Disassembly of section .text:

00001074 <main>:
    1074:	fe010113          	addi	sp,sp,-32
    1078:	00112e23          	sw	ra,28(sp)
    107c:	00812c23          	sw	s0,24(sp)
    1080:	1f8000ef          	jal	ra,1278 <initialise_board>
    1084:	1d0000ef          	jal	ra,1254 <initialise_benchmark>
    1088:	00100513          	li	a0,1
    108c:	1cc000ef          	jal	ra,1258 <warm_caches>
    1090:	1f0000ef          	jal	ra,1280 <start_trigger>
    1094:	1c8000ef          	jal	ra,125c <benchmark>
    1098:	00a12623          	sw	a0,12(sp)
    109c:	204000ef          	jal	ra,12a0 <stop_trigger>
    10a0:	00c12503          	lw	a0,12(sp)
    10a4:	1c0000ef          	jal	ra,1264 <verify_benchmark>
    10a8:	00050413          	mv	s0,a0
    10ac:	214000ef          	jal	ra,12c0 <verify_trigger>
    10b0:	01c12083          	lw	ra,28(sp)
    10b4:	00143513          	seqz	a0,s0
    10b8:	01812403          	lw	s0,24(sp)
    10bc:	02010113          	addi	sp,sp,32
    10c0:	00008067          	ret

000010c4 <register_fini>:
    10c4:	00000793          	li	a5,0
    10c8:	00078863          	beqz	a5,10d8 <register_fini+0x14>
    10cc:	00001537          	lui	a0,0x1
    10d0:	5dc50513          	addi	a0,a0,1500 # 15dc <__libc_fini_array>
    10d4:	5640006f          	j	1638 <atexit>
    10d8:	00008067          	ret

000010dc <_start>:
    10dc:	00002197          	auipc	gp,0x2
    10e0:	26418193          	addi	gp,gp,612 # 3340 <__global_pointer$>
    10e4:	c3018513          	addi	a0,gp,-976 # 2f70 <seed>
    10e8:	c5018613          	addi	a2,gp,-944 # 2f90 <__BSS_END__>
    10ec:	40a60633          	sub	a2,a2,a0
    10f0:	00000593          	li	a1,0
    10f4:	2ec000ef          	jal	ra,13e0 <memset>
    10f8:	00000517          	auipc	a0,0x0
    10fc:	54050513          	addi	a0,a0,1344 # 1638 <atexit>
    1100:	00050863          	beqz	a0,1110 <_start+0x34>
    1104:	00000517          	auipc	a0,0x0
    1108:	4d850513          	addi	a0,a0,1240 # 15dc <__libc_fini_array>
    110c:	52c000ef          	jal	ra,1638 <atexit>
    1110:	234000ef          	jal	ra,1344 <__libc_init_array>
    1114:	00012503          	lw	a0,0(sp)
    1118:	00410593          	addi	a1,sp,4
    111c:	00000613          	li	a2,0
    1120:	f55ff0ef          	jal	ra,1074 <main>
    1124:	1f00006f          	j	1314 <exit>

00001128 <__do_global_dtors_aux>:
    1128:	c341c703          	lbu	a4,-972(gp) # 2f74 <completed.5490>
    112c:	04071263          	bnez	a4,1170 <__do_global_dtors_aux+0x48>
    1130:	ff010113          	addi	sp,sp,-16
    1134:	00812423          	sw	s0,8(sp)
    1138:	00078413          	mv	s0,a5
    113c:	00112623          	sw	ra,12(sp)
    1140:	00000793          	li	a5,0
    1144:	00078a63          	beqz	a5,1158 <__do_global_dtors_aux+0x30>
    1148:	00003537          	lui	a0,0x3
    114c:	b3050513          	addi	a0,a0,-1232 # 2b30 <__FRAME_END__>
    1150:	00000097          	auipc	ra,0x0
    1154:	000000e7          	jalr	zero # 0 <main-0x1074>
    1158:	00100793          	li	a5,1
    115c:	00c12083          	lw	ra,12(sp)
    1160:	c2f18a23          	sb	a5,-972(gp) # 2f74 <completed.5490>
    1164:	00812403          	lw	s0,8(sp)
    1168:	01010113          	addi	sp,sp,16
    116c:	00008067          	ret
    1170:	00008067          	ret

00001174 <frame_dummy>:
    1174:	00000793          	li	a5,0
    1178:	00078c63          	beqz	a5,1190 <frame_dummy+0x1c>
    117c:	00003537          	lui	a0,0x3
    1180:	c3818593          	addi	a1,gp,-968 # 2f78 <object.5495>
    1184:	b3050513          	addi	a0,a0,-1232 # 2b30 <__FRAME_END__>
    1188:	00000317          	auipc	t1,0x0
    118c:	00000067          	jr	zero # 0 <main-0x1074>
    1190:	00008067          	ret

00001194 <crc32pseudo>:
    1194:	ff010113          	addi	sp,sp,-16
    1198:	01212023          	sw	s2,0(sp)
    119c:	00001937          	lui	s2,0x1
    11a0:	00812423          	sw	s0,8(sp)
    11a4:	00912223          	sw	s1,4(sp)
    11a8:	00112623          	sw	ra,12(sp)
    11ac:	40000493          	li	s1,1024
    11b0:	fff00413          	li	s0,-1
    11b4:	73090913          	addi	s2,s2,1840 # 1730 <crc_32_tab>
    11b8:	120000ef          	jal	ra,12d8 <rand_beebs>
    11bc:	00a447b3          	xor	a5,s0,a0
    11c0:	0ff7f793          	andi	a5,a5,255
    11c4:	00279793          	slli	a5,a5,0x2
    11c8:	00f907b3          	add	a5,s2,a5
    11cc:	0007a783          	lw	a5,0(a5)
    11d0:	00845413          	srli	s0,s0,0x8
    11d4:	fff48493          	addi	s1,s1,-1
    11d8:	0087c433          	xor	s0,a5,s0
    11dc:	fc049ee3          	bnez	s1,11b8 <crc32pseudo+0x24>
    11e0:	00c12083          	lw	ra,12(sp)
    11e4:	fff44513          	not	a0,s0
    11e8:	00812403          	lw	s0,8(sp)
    11ec:	00412483          	lw	s1,4(sp)
    11f0:	00012903          	lw	s2,0(sp)
    11f4:	01010113          	addi	sp,sp,16
    11f8:	00008067          	ret

000011fc <benchmark_body>:
    11fc:	04a05663          	blez	a0,1248 <benchmark_body+0x4c>
    1200:	ff010113          	addi	sp,sp,-16
    1204:	00812423          	sw	s0,8(sp)
    1208:	00912223          	sw	s1,4(sp)
    120c:	00112623          	sw	ra,12(sp)
    1210:	00050493          	mv	s1,a0
    1214:	00000413          	li	s0,0
    1218:	00000513          	li	a0,0
    121c:	0f0000ef          	jal	ra,130c <srand_beebs>
    1220:	00140413          	addi	s0,s0,1
    1224:	f71ff0ef          	jal	ra,1194 <crc32pseudo>
    1228:	fe8498e3          	bne	s1,s0,1218 <benchmark_body+0x1c>
    122c:	00c12083          	lw	ra,12(sp)
    1230:	00812403          	lw	s0,8(sp)
    1234:	01151513          	slli	a0,a0,0x11
    1238:	00412483          	lw	s1,4(sp)
    123c:	01155513          	srli	a0,a0,0x11
    1240:	01010113          	addi	sp,sp,16
    1244:	00008067          	ret
    1248:	01179513          	slli	a0,a5,0x11
    124c:	01155513          	srli	a0,a0,0x11
    1250:	00008067          	ret

00001254 <initialise_benchmark>:
    1254:	00008067          	ret

00001258 <warm_caches>:
    1258:	fa5ff06f          	j	11fc <benchmark_body>

0000125c <benchmark>:
    125c:	0aa00513          	li	a0,170
    1260:	f9dff06f          	j	11fc <benchmark_body>

00001264 <verify_benchmark>:
    1264:	ffffd7b7          	lui	a5,0xffffd
    1268:	35778793          	addi	a5,a5,855 # ffffd357 <__global_pointer$+0xffffa017>
    126c:	00f50533          	add	a0,a0,a5
    1270:	00153513          	seqz	a0,a0
    1274:	00008067          	ret

00001278 <initialise_board>:
    1278:	00000513          	li	a0,0
    127c:	00008067          	ret

00001280 <start_trigger>:
    1280:	00000513          	li	a0,0
    1284:	c0001ff3          	csrrw	t6,cycle,zero
    1288:	00101eb7          	lui	t4,0x101
    128c:	010e8e93          	addi	t4,t4,16 # 101010 <__global_pointer$+0xfdcd0>
    1290:	00000f13          	li	t5,0
    1294:	00000e93          	li	t4,0
    1298:	00000f13          	li	t5,0
    129c:	00008067          	ret

000012a0 <stop_trigger>:
    12a0:	00000513          	li	a0,0
    12a4:	c0001ff3          	csrrw	t6,cycle,zero
    12a8:	00101eb7          	lui	t4,0x101
    12ac:	010e8e93          	addi	t4,t4,16 # 101010 <__global_pointer$+0xfdcd0>
    12b0:	00100f13          	li	t5,1
    12b4:	00000e93          	li	t4,0
    12b8:	00000f13          	li	t5,0
    12bc:	00008067          	ret

000012c0 <verify_trigger>:
    12c0:	00101eb7          	lui	t4,0x101
    12c4:	010e8e93          	addi	t4,t4,16 # 101010 <__global_pointer$+0xfdcd0>
    12c8:	00200f13          	li	t5,2
    12cc:	00000e93          	li	t4,0
    12d0:	00000f13          	li	t5,0
    12d4:	00008067          	ret

000012d8 <rand_beebs>:
    12d8:	c3018793          	addi	a5,gp,-976 # 2f70 <seed>
    12dc:	0007a503          	lw	a0,0(a5)
    12e0:	41c65737          	lui	a4,0x41c65
    12e4:	e6d70713          	addi	a4,a4,-403 # 41c64e6d <__global_pointer$+0x41c61b2d>
    12e8:	02e50533          	mul	a0,a0,a4
    12ec:	00003737          	lui	a4,0x3
    12f0:	03970713          	addi	a4,a4,57 # 3039 <__BSS_END__+0xa9>
    12f4:	00e50533          	add	a0,a0,a4
    12f8:	00151513          	slli	a0,a0,0x1
    12fc:	00155513          	srli	a0,a0,0x1
    1300:	00a7a023          	sw	a0,0(a5)
    1304:	01055513          	srli	a0,a0,0x10
    1308:	00008067          	ret

0000130c <srand_beebs>:
    130c:	c2a1a823          	sw	a0,-976(gp) # 2f70 <seed>
    1310:	00008067          	ret

00001314 <exit>:
    1314:	ff010113          	addi	sp,sp,-16
    1318:	00000593          	li	a1,0
    131c:	00812423          	sw	s0,8(sp)
    1320:	00112623          	sw	ra,12(sp)
    1324:	00050413          	mv	s0,a0
    1328:	194000ef          	jal	ra,14bc <__call_exitprocs>
    132c:	c281a503          	lw	a0,-984(gp) # 2f68 <_global_impure_ptr>
    1330:	03c52783          	lw	a5,60(a0)
    1334:	00078463          	beqz	a5,133c <exit+0x28>
    1338:	000780e7          	jalr	a5
    133c:	00040513          	mv	a0,s0
    1340:	3a4000ef          	jal	ra,16e4 <_exit>

00001344 <__libc_init_array>:
    1344:	ff010113          	addi	sp,sp,-16
    1348:	00812423          	sw	s0,8(sp)
    134c:	01212023          	sw	s2,0(sp)
    1350:	00003437          	lui	s0,0x3
    1354:	00003937          	lui	s2,0x3
    1358:	b3440793          	addi	a5,s0,-1228 # 2b34 <__init_array_start>
    135c:	b3490913          	addi	s2,s2,-1228 # 2b34 <__init_array_start>
    1360:	40f90933          	sub	s2,s2,a5
    1364:	00112623          	sw	ra,12(sp)
    1368:	00912223          	sw	s1,4(sp)
    136c:	40295913          	srai	s2,s2,0x2
    1370:	02090063          	beqz	s2,1390 <__libc_init_array+0x4c>
    1374:	b3440413          	addi	s0,s0,-1228
    1378:	00000493          	li	s1,0
    137c:	00042783          	lw	a5,0(s0)
    1380:	00148493          	addi	s1,s1,1
    1384:	00440413          	addi	s0,s0,4
    1388:	000780e7          	jalr	a5
    138c:	fe9918e3          	bne	s2,s1,137c <__libc_init_array+0x38>
    1390:	00003437          	lui	s0,0x3
    1394:	00003937          	lui	s2,0x3
    1398:	b3440793          	addi	a5,s0,-1228 # 2b34 <__init_array_start>
    139c:	b3c90913          	addi	s2,s2,-1220 # 2b3c <__do_global_dtors_aux_fini_array_entry>
    13a0:	40f90933          	sub	s2,s2,a5
    13a4:	40295913          	srai	s2,s2,0x2
    13a8:	02090063          	beqz	s2,13c8 <__libc_init_array+0x84>
    13ac:	b3440413          	addi	s0,s0,-1228
    13b0:	00000493          	li	s1,0
    13b4:	00042783          	lw	a5,0(s0)
    13b8:	00148493          	addi	s1,s1,1
    13bc:	00440413          	addi	s0,s0,4
    13c0:	000780e7          	jalr	a5
    13c4:	fe9918e3          	bne	s2,s1,13b4 <__libc_init_array+0x70>
    13c8:	00c12083          	lw	ra,12(sp)
    13cc:	00812403          	lw	s0,8(sp)
    13d0:	00412483          	lw	s1,4(sp)
    13d4:	00012903          	lw	s2,0(sp)
    13d8:	01010113          	addi	sp,sp,16
    13dc:	00008067          	ret

000013e0 <memset>:
    13e0:	00f00313          	li	t1,15
    13e4:	00050713          	mv	a4,a0
    13e8:	02c37e63          	bgeu	t1,a2,1424 <memset+0x44>
    13ec:	00f77793          	andi	a5,a4,15
    13f0:	0a079063          	bnez	a5,1490 <memset+0xb0>
    13f4:	08059263          	bnez	a1,1478 <memset+0x98>
    13f8:	ff067693          	andi	a3,a2,-16
    13fc:	00f67613          	andi	a2,a2,15
    1400:	00e686b3          	add	a3,a3,a4
    1404:	00b72023          	sw	a1,0(a4)
    1408:	00b72223          	sw	a1,4(a4)
    140c:	00b72423          	sw	a1,8(a4)
    1410:	00b72623          	sw	a1,12(a4)
    1414:	01070713          	addi	a4,a4,16
    1418:	fed766e3          	bltu	a4,a3,1404 <memset+0x24>
    141c:	00061463          	bnez	a2,1424 <memset+0x44>
    1420:	00008067          	ret
    1424:	40c306b3          	sub	a3,t1,a2
    1428:	00269693          	slli	a3,a3,0x2
    142c:	00000297          	auipc	t0,0x0
    1430:	005686b3          	add	a3,a3,t0
    1434:	00c68067          	jr	12(a3)
    1438:	00b70723          	sb	a1,14(a4)
    143c:	00b706a3          	sb	a1,13(a4)
    1440:	00b70623          	sb	a1,12(a4)
    1444:	00b705a3          	sb	a1,11(a4)
    1448:	00b70523          	sb	a1,10(a4)
    144c:	00b704a3          	sb	a1,9(a4)
    1450:	00b70423          	sb	a1,8(a4)
    1454:	00b703a3          	sb	a1,7(a4)
    1458:	00b70323          	sb	a1,6(a4)
    145c:	00b702a3          	sb	a1,5(a4)
    1460:	00b70223          	sb	a1,4(a4)
    1464:	00b701a3          	sb	a1,3(a4)
    1468:	00b70123          	sb	a1,2(a4)
    146c:	00b700a3          	sb	a1,1(a4)
    1470:	00b70023          	sb	a1,0(a4)
    1474:	00008067          	ret
    1478:	0ff5f593          	andi	a1,a1,255
    147c:	00859693          	slli	a3,a1,0x8
    1480:	00d5e5b3          	or	a1,a1,a3
    1484:	01059693          	slli	a3,a1,0x10
    1488:	00d5e5b3          	or	a1,a1,a3
    148c:	f6dff06f          	j	13f8 <memset+0x18>
    1490:	00279693          	slli	a3,a5,0x2
    1494:	00000297          	auipc	t0,0x0
    1498:	005686b3          	add	a3,a3,t0
    149c:	00008293          	mv	t0,ra
    14a0:	fa0680e7          	jalr	-96(a3)
    14a4:	00028093          	mv	ra,t0
    14a8:	ff078793          	addi	a5,a5,-16
    14ac:	40f70733          	sub	a4,a4,a5
    14b0:	00f60633          	add	a2,a2,a5
    14b4:	f6c378e3          	bgeu	t1,a2,1424 <memset+0x44>
    14b8:	f3dff06f          	j	13f4 <memset+0x14>

000014bc <__call_exitprocs>:
    14bc:	fd010113          	addi	sp,sp,-48
    14c0:	01412c23          	sw	s4,24(sp)
    14c4:	c281aa03          	lw	s4,-984(gp) # 2f68 <_global_impure_ptr>
    14c8:	03212023          	sw	s2,32(sp)
    14cc:	02112623          	sw	ra,44(sp)
    14d0:	148a2903          	lw	s2,328(s4)
    14d4:	02812423          	sw	s0,40(sp)
    14d8:	02912223          	sw	s1,36(sp)
    14dc:	01312e23          	sw	s3,28(sp)
    14e0:	01512a23          	sw	s5,20(sp)
    14e4:	01612823          	sw	s6,16(sp)
    14e8:	01712623          	sw	s7,12(sp)
    14ec:	01812423          	sw	s8,8(sp)
    14f0:	04090063          	beqz	s2,1530 <__call_exitprocs+0x74>
    14f4:	00050b13          	mv	s6,a0
    14f8:	00058b93          	mv	s7,a1
    14fc:	00100a93          	li	s5,1
    1500:	fff00993          	li	s3,-1
    1504:	00492483          	lw	s1,4(s2)
    1508:	fff48413          	addi	s0,s1,-1
    150c:	02044263          	bltz	s0,1530 <__call_exitprocs+0x74>
    1510:	00249493          	slli	s1,s1,0x2
    1514:	009904b3          	add	s1,s2,s1
    1518:	040b8463          	beqz	s7,1560 <__call_exitprocs+0xa4>
    151c:	1044a783          	lw	a5,260(s1)
    1520:	05778063          	beq	a5,s7,1560 <__call_exitprocs+0xa4>
    1524:	fff40413          	addi	s0,s0,-1
    1528:	ffc48493          	addi	s1,s1,-4
    152c:	ff3416e3          	bne	s0,s3,1518 <__call_exitprocs+0x5c>
    1530:	02c12083          	lw	ra,44(sp)
    1534:	02812403          	lw	s0,40(sp)
    1538:	02412483          	lw	s1,36(sp)
    153c:	02012903          	lw	s2,32(sp)
    1540:	01c12983          	lw	s3,28(sp)
    1544:	01812a03          	lw	s4,24(sp)
    1548:	01412a83          	lw	s5,20(sp)
    154c:	01012b03          	lw	s6,16(sp)
    1550:	00c12b83          	lw	s7,12(sp)
    1554:	00812c03          	lw	s8,8(sp)
    1558:	03010113          	addi	sp,sp,48
    155c:	00008067          	ret
    1560:	00492783          	lw	a5,4(s2)
    1564:	0044a683          	lw	a3,4(s1)
    1568:	fff78793          	addi	a5,a5,-1
    156c:	04878e63          	beq	a5,s0,15c8 <__call_exitprocs+0x10c>
    1570:	0004a223          	sw	zero,4(s1)
    1574:	fa0688e3          	beqz	a3,1524 <__call_exitprocs+0x68>
    1578:	18892783          	lw	a5,392(s2)
    157c:	008a9733          	sll	a4,s5,s0
    1580:	00492c03          	lw	s8,4(s2)
    1584:	00f777b3          	and	a5,a4,a5
    1588:	02079263          	bnez	a5,15ac <__call_exitprocs+0xf0>
    158c:	000680e7          	jalr	a3
    1590:	00492703          	lw	a4,4(s2)
    1594:	148a2783          	lw	a5,328(s4)
    1598:	01871463          	bne	a4,s8,15a0 <__call_exitprocs+0xe4>
    159c:	f8f904e3          	beq	s2,a5,1524 <__call_exitprocs+0x68>
    15a0:	f80788e3          	beqz	a5,1530 <__call_exitprocs+0x74>
    15a4:	00078913          	mv	s2,a5
    15a8:	f5dff06f          	j	1504 <__call_exitprocs+0x48>
    15ac:	18c92783          	lw	a5,396(s2)
    15b0:	0844a583          	lw	a1,132(s1)
    15b4:	00f77733          	and	a4,a4,a5
    15b8:	00071c63          	bnez	a4,15d0 <__call_exitprocs+0x114>
    15bc:	000b0513          	mv	a0,s6
    15c0:	000680e7          	jalr	a3
    15c4:	fcdff06f          	j	1590 <__call_exitprocs+0xd4>
    15c8:	00892223          	sw	s0,4(s2)
    15cc:	fa9ff06f          	j	1574 <__call_exitprocs+0xb8>
    15d0:	00058513          	mv	a0,a1
    15d4:	000680e7          	jalr	a3
    15d8:	fb9ff06f          	j	1590 <__call_exitprocs+0xd4>

000015dc <__libc_fini_array>:
    15dc:	ff010113          	addi	sp,sp,-16
    15e0:	00812423          	sw	s0,8(sp)
    15e4:	000037b7          	lui	a5,0x3
    15e8:	00003437          	lui	s0,0x3
    15ec:	b3c40413          	addi	s0,s0,-1220 # 2b3c <__do_global_dtors_aux_fini_array_entry>
    15f0:	b4078793          	addi	a5,a5,-1216 # 2b40 <impure_data>
    15f4:	408787b3          	sub	a5,a5,s0
    15f8:	00912223          	sw	s1,4(sp)
    15fc:	00112623          	sw	ra,12(sp)
    1600:	4027d493          	srai	s1,a5,0x2
    1604:	02048063          	beqz	s1,1624 <__libc_fini_array+0x48>
    1608:	ffc78793          	addi	a5,a5,-4
    160c:	00878433          	add	s0,a5,s0
    1610:	00042783          	lw	a5,0(s0)
    1614:	fff48493          	addi	s1,s1,-1
    1618:	ffc40413          	addi	s0,s0,-4
    161c:	000780e7          	jalr	a5
    1620:	fe0498e3          	bnez	s1,1610 <__libc_fini_array+0x34>
    1624:	00c12083          	lw	ra,12(sp)
    1628:	00812403          	lw	s0,8(sp)
    162c:	00412483          	lw	s1,4(sp)
    1630:	01010113          	addi	sp,sp,16
    1634:	00008067          	ret

00001638 <atexit>:
    1638:	00050593          	mv	a1,a0
    163c:	00000693          	li	a3,0
    1640:	00000613          	li	a2,0
    1644:	00000513          	li	a0,0
    1648:	0040006f          	j	164c <__register_exitproc>

0000164c <__register_exitproc>:
    164c:	c281a703          	lw	a4,-984(gp) # 2f68 <_global_impure_ptr>
    1650:	14872783          	lw	a5,328(a4)
    1654:	04078c63          	beqz	a5,16ac <__register_exitproc+0x60>
    1658:	0047a703          	lw	a4,4(a5)
    165c:	01f00813          	li	a6,31
    1660:	06e84e63          	blt	a6,a4,16dc <__register_exitproc+0x90>
    1664:	00271813          	slli	a6,a4,0x2
    1668:	02050663          	beqz	a0,1694 <__register_exitproc+0x48>
    166c:	01078333          	add	t1,a5,a6
    1670:	08c32423          	sw	a2,136(t1) # 1210 <benchmark_body+0x14>
    1674:	1887a883          	lw	a7,392(a5)
    1678:	00100613          	li	a2,1
    167c:	00e61633          	sll	a2,a2,a4
    1680:	00c8e8b3          	or	a7,a7,a2
    1684:	1917a423          	sw	a7,392(a5)
    1688:	10d32423          	sw	a3,264(t1)
    168c:	00200693          	li	a3,2
    1690:	02d50463          	beq	a0,a3,16b8 <__register_exitproc+0x6c>
    1694:	00170713          	addi	a4,a4,1
    1698:	00e7a223          	sw	a4,4(a5)
    169c:	010787b3          	add	a5,a5,a6
    16a0:	00b7a423          	sw	a1,8(a5)
    16a4:	00000513          	li	a0,0
    16a8:	00008067          	ret
    16ac:	14c70793          	addi	a5,a4,332
    16b0:	14f72423          	sw	a5,328(a4)
    16b4:	fa5ff06f          	j	1658 <__register_exitproc+0xc>
    16b8:	18c7a683          	lw	a3,396(a5)
    16bc:	00170713          	addi	a4,a4,1
    16c0:	00e7a223          	sw	a4,4(a5)
    16c4:	00c6e633          	or	a2,a3,a2
    16c8:	18c7a623          	sw	a2,396(a5)
    16cc:	010787b3          	add	a5,a5,a6
    16d0:	00b7a423          	sw	a1,8(a5)
    16d4:	00000513          	li	a0,0
    16d8:	00008067          	ret
    16dc:	fff00513          	li	a0,-1
    16e0:	00008067          	ret

000016e4 <_exit>:
    16e4:	00000593          	li	a1,0
    16e8:	00000613          	li	a2,0
    16ec:	00000693          	li	a3,0
    16f0:	00000713          	li	a4,0
    16f4:	00000793          	li	a5,0
    16f8:	05d00893          	li	a7,93
    16fc:	00000073          	ecall
    1700:	00054463          	bltz	a0,1708 <_exit+0x24>
    1704:	0000006f          	j	1704 <_exit+0x20>
    1708:	ff010113          	addi	sp,sp,-16
    170c:	00812423          	sw	s0,8(sp)
    1710:	00050413          	mv	s0,a0
    1714:	00112623          	sw	ra,12(sp)
    1718:	40800433          	neg	s0,s0
    171c:	00c000ef          	jal	ra,1728 <__errno>
    1720:	00852023          	sw	s0,0(a0)
    1724:	0000006f          	j	1724 <_exit+0x40>

00001728 <__errno>:
    1728:	c2c1a503          	lw	a0,-980(gp) # 2f6c <_impure_ptr>
    172c:	00008067          	ret

Disassembly of section .rodata:

00001730 <crc_32_tab>:
    1730:	0000                	unimp
    1732:	0000                	unimp
    1734:	3096                	fld	ft1,352(sp)
    1736:	612c7707          	0x612c7707
    173a:	ee0e                	fsw	ft3,28(sp)
    173c:	51ba                	lw	gp,172(sp)
    173e:	9909                	andi	a0,a0,-30
    1740:	c419                	beqz	s0,174e <crc_32_tab+0x1e>
    1742:	076d                	addi	a4,a4,27
    1744:	706af48f          	0x706af48f
    1748:	a535                	j	1d74 <crc_32_tab+0x644>
    174a:	95a3e963          	bltu	t2,s10,89c <main-0x7d8>
    174e:	9e64                	0x9e64
    1750:	8832                	mv	a6,a2
    1752:	b8a40edb          	0xb8a40edb
    1756:	79dc                	flw	fa5,52(a1)
    1758:	e91e                	fsw	ft7,144(sp)
    175a:	e0d5                	bnez	s1,17fe <crc_32_tab+0xce>
    175c:	d988                	sw	a0,48(a1)
    175e:	97d2                	add	a5,a5,s4
    1760:	09b64c2b          	0x9b64c2b
    1764:	7cbd                	lui	s9,0xfffef
    1766:	7eb1                	lui	t4,0xfffec
    1768:	e7b82d07          	flw	fs10,-389(a6)
    176c:	1d91                	addi	s11,s11,-28
    176e:	106490bf 20f21db7 	0x20f21db7106490bf
    1776:	6ab0                	flw	fa2,80(a3)
    1778:	7148                	flw	fa0,36(a0)
    177a:	f3b9                	bnez	a5,16c0 <__register_exitproc+0x74>
    177c:	41de                	lw	gp,212(sp)
    177e:	84be                	mv	s1,a5
    1780:	d47d                	beqz	s0,176e <crc_32_tab+0x3e>
    1782:	1ada                	slli	s5,s5,0x36
    1784:	6ddde4eb          	0x6ddde4eb
    1788:	b551                	j	160c <__libc_fini_array+0x30>
    178a:	f4d4                	fsw	fa3,44(s1)
    178c:	83d385c7          	fmsub.d	fa1,ft7,ft9,fa6,rne
    1790:	9856                	add	a6,a6,s5
    1792:	136c                	addi	a1,sp,428
    1794:	a8c0                	fsd	fs0,144(s1)
    1796:	f97a646b          	0xf97a646b
    179a:	fd62                	fsw	fs8,184(sp)
    179c:	c9ec                	sw	a1,84(a1)
    179e:	8a65                	andi	a2,a2,25
    17a0:	14015c4f          	0x14015c4f
    17a4:	6cd9                	lui	s9,0x16
    17a6:	6306                	flw	ft6,64(sp)
    17a8:	fa0f3d63          	0xfa0f3d63
    17ac:	0df5                	addi	s11,s11,29
    17ae:	8d08                	0x8d08
    17b0:	20c8                	fld	fa0,128(s1)
    17b2:	3b6e                	fld	fs6,248(sp)
    17b4:	105e                	c.slli	zero,0x37
    17b6:	4c69                	li	s8,26
    17b8:	41e4                	lw	s1,68(a1)
    17ba:	d560                	sw	s0,108(a0)
    17bc:	7172                	flw	ft2,60(sp)
    17be:	e4d1a267          	0xe4d1a267
    17c2:	d4473c03          	0xd4473c03
    17c6:	4b04                	lw	s1,16(a4)
    17c8:	85fd                	srai	a1,a1,0x1f
    17ca:	d20d                	beqz	a2,16ec <_exit+0x8>
    17cc:	a50ab56b          	0xa50ab56b
    17d0:	a8fa                	fsd	ft10,80(sp)
    17d2:	35b5                	jal	163e <atexit+0x6>
    17d4:	986c                	0x986c
    17d6:	42b2                	lw	t0,12(sp)
    17d8:	c9d6                	sw	s5,208(sp)
    17da:	f940dbbb          	0xf940dbbb
    17de:	acbc                	fsd	fa5,88(s1)
    17e0:	32d86ce3          	bltu	a6,a3,2318 <crc_32_tab+0xbe8>
    17e4:	5c75                	li	s8,-3
    17e6:	45df 0dcf dcd6      	0xdcd60dcf45df
    17ec:	3d59                	jal	1682 <__register_exitproc+0x36>
    17ee:	abd1                	j	1dc2 <crc_32_tab+0x692>
    17f0:	30ac                	fld	fa1,96(s1)
    17f2:	26d9                	jal	1bb8 <crc_32_tab+0x488>
    17f4:	003a                	c.slli	zero,0xe
    17f6:	51de                	lw	gp,244(sp)
    17f8:	5180                	lw	s0,32(a1)
    17fa:	6116c8d7          	0x6116c8d7
    17fe:	bfd0                	fsd	fa2,184(a5)
    1800:	f4b5                	bnez	s1,176c <crc_32_tab+0x3c>
    1802:	21b4                	fld	fa3,64(a1)
    1804:	56b3c423          	0x56b3c423
    1808:	9599                	srai	a1,a1,0x26
    180a:	cfba                	sw	a4,220(sp)
    180c:	b8bda50f          	0xb8bda50f
    1810:	b89e                	fsd	ft7,112(sp)
    1812:	2802                	fld	fa6,0(sp)
    1814:	8808                	0x8808
    1816:	5f05                	li	t5,-31
    1818:	d9b2                	sw	a2,240(sp)
    181a:	c60c                	sw	a1,8(a2)
    181c:	e924                	fsw	fs1,80(a0)
    181e:	7c87b10b          	0x7c87b10b
    1822:	4c112f6f          	jal	t5,144e2 <__global_pointer$+0x111a2>
    1826:	5868                	lw	a0,116(s0)
    1828:	c1611dab          	0xc1611dab
    182c:	2d3d                	jal	1e6a <crc_32_tab+0x73a>
    182e:	b666                	fsd	fs9,296(sp)
    1830:	4190                	lw	a2,0(a1)
    1832:	76dc                	flw	fa5,44(a3)
    1834:	7106                	flw	ft2,96(sp)
    1836:	20bc01db          	0x20bc01db
    183a:	98d2                	add	a7,a7,s4
    183c:	102a                	c.slli	zero,0x2a
    183e:	efd5                	bnez	a5,18fa <crc_32_tab+0x1ca>
    1840:	8589                	srai	a1,a1,0x2
    1842:	71b1                	lui	gp,0xfffec
    1844:	b51f 06b6 e4a5      	0xe4a506b6b51f
    184a:	d4339fbf c9a2e8b8 	0xc9a2e8b8d4339fbf
    1852:	f9347807          	0xf9347807
    1856:	0f00                	addi	s0,sp,912
    1858:	a88e                	fsd	ft3,80(sp)
    185a:	9609                	srai	a2,a2,0x22
    185c:	9818                	0x9818
    185e:	e10e                	fsw	ft3,128(sp)
    1860:	7f6a0dbb          	0x7f6a0dbb
    1864:	3d2d                	jal	169e <__register_exitproc+0x52>
    1866:	086d                	addi	a6,a6,27
    1868:	91646c97          	auipc	s9,0x91646
    186c:	5c01                	li	s8,-32
    186e:	51f4e663          	bltu	s1,t6,1d7a <crc_32_tab+0x64a>
    1872:	61626b6b          	0x61626b6b
    1876:	1c6c                	addi	a1,sp,572
    1878:	30d8                	fld	fa4,160(s1)
    187a:	8565                	srai	a0,a0,0x19
    187c:	004e                	c.slli	zero,0x13
    187e:	f262                	fsw	fs8,36(sp)
    1880:	95ed                	srai	a1,a1,0x3b
    1882:	6c06                	flw	fs8,64(sp)
    1884:	1b01a57b          	0x1b01a57b
    1888:	f4c1                	bnez	s1,1810 <crc_32_tab+0xe0>
    188a:	8208                	0x8208
    188c:	f50fc457          	0xf50fc457
    1890:	d9c6                	sw	a7,240(sp)
    1892:	65b0                	flw	fa2,72(a1)
    1894:	e950                	fsw	fa2,20(a0)
    1896:	b8ea12b7          	lui	t0,0xb8ea1
    189a:	8bbe                	mv	s7,a5
    189c:	887c                	0x887c
    189e:	fcb9                	bnez	s1,17fc <crc_32_tab+0xcc>
    18a0:	1ddf 62dd 2d49      	0x2d4962dd1ddf
    18a6:	15da                	slli	a1,a1,0x36
    18a8:	8cd37cf3          	csrrci	s9,0x8cd,6
    18ac:	4c65                	li	s8,25
    18ae:	fbd4                	fsw	fa3,52(a5)
    18b0:	6158                	flw	fa4,4(a0)
    18b2:	4db2                	lw	s11,12(sp)
    18b4:	51ce                	lw	gp,240(sp)
    18b6:	3ab5                	jal	1232 <benchmark_body+0x36>
    18b8:	0074                	addi	a3,sp,12
    18ba:	a3bc                	fsd	fa5,64(a5)
    18bc:	30e2                	fld	ft1,56(sp)
    18be:	a541d4bb          	0xa541d4bb
    18c2:	4adf 95d7 3dd8      	0x3dd895d74adf
    18c8:	c46d                	beqz	s0,19b2 <crc_32_tab+0x282>
    18ca:	a4d1                	j	1b8e <crc_32_tab+0x45e>
    18cc:	d3d6f4fb          	0xd3d6f4fb
    18d0:	e96a                	fsw	fs10,144(sp)
    18d2:	4369                	li	t1,26
    18d4:	d9fc                	sw	a5,116(a1)
    18d6:	346e                	fld	fs0,248(sp)
    18d8:	8846                	mv	a6,a7
    18da:	b8d0ad67          	0xb8d0ad67
    18de:	da60                	sw	s0,116(a2)
    18e0:	44042d73          	csrrs	s10,0x440,s0
    18e4:	1de5                	addi	s11,s11,-7
    18e6:	4c5f3303          	0x4c5f3303
    18ea:	aa0a                	fsd	ft2,272(sp)
    18ec:	7cc9                	lui	s9,0xffff2
    18ee:	dd0d                	beqz	a0,1828 <crc_32_tab+0xf8>
    18f0:	713c                	flw	fa5,96(a0)
    18f2:	5005                	c.li	zero,-31
    18f4:	41aa                	lw	gp,136(sp)
    18f6:	2702                	fld	fa4,0(sp)
    18f8:	1010                	addi	a2,sp,32
    18fa:	2086be0b          	0x2086be0b
    18fe:	c90c                	sw	a1,16(a0)
    1900:	b525                	j	1728 <__errno>
    1902:	5768                	lw	a0,108(a4)
    1904:	206f85b3          	0x206f85b3
    1908:	d409                	beqz	s0,1812 <crc_32_tab+0xe2>
    190a:	b966                	fsd	fs9,176(sp)
    190c:	e49f ce61 f90e      	0xf90ece61e49f
    1912:	5ede                	lw	t4,244(sp)
    1914:	c998                	sw	a4,16(a1)
    1916:	29d9                	jal	1dec <crc_32_tab+0x6bc>
    1918:	9822                	add	a6,a6,s0
    191a:	b0d0                	fsd	fa2,160(s1)
    191c:	a8b4                	fsd	fa3,80(s1)
    191e:	3d17c7d7          	0x3d17c7d7
    1922:	0d8159b3          	0xd8159b3
    1926:	2eb4                	fld	fa3,88(a3)
    1928:	b7bd5c3b          	0xb7bd5c3b
    192c:	6cad                	lui	s9,0xb
    192e:	c0ba                	sw	a4,64(sp)
    1930:	8320                	0x8320
    1932:	edb8                	fsw	fa4,88(a1)
    1934:	b3b6                	fsd	fa3,480(sp)
    1936:	e20c9abf d29a03b6 	0xd29a03b6e20c9abf
    193e:	74b1                	lui	s1,0xfffec
    1940:	4739                	li	a4,14
    1942:	ead5                	bnez	a3,19f6 <crc_32_tab+0x2c6>
    1944:	9dd277af          	0x9dd277af
    1948:	2615                	jal	1c6c <crc_32_tab+0x53c>
    194a:	168304db          	0x168304db
    194e:	73dc                	flw	fa5,36(a5)
    1950:	0b12                	slli	s6,s6,0x4
    1952:	3b84e363          	bltu	s1,s8,1cf8 <crc_32_tab+0x5c8>
    1956:	9464                	0x9464
    1958:	6a3e                	flw	fs4,204(sp)
    195a:	0d6d                	addi	s10,s10,27
    195c:	5aa8                	lw	a0,112(a3)
    195e:	7a6a                	flw	fs4,184(sp)
    1960:	e40ecf0b          	0xe40ecf0b
    1964:	ff9d                	bnez	a5,18a2 <crc_32_tab+0x172>
    1966:	9309                	srli	a4,a4,0x22
    1968:	0a00ae27          	fsw	ft0,188(ra) # 120c <benchmark_body+0x10>
    196c:	9eb1                	0x9eb1
    196e:	93447d07          	0x93447d07
    1972:	a3d2f00f          	0xa3d2f00f
    1976:	8708                	0x8708
    1978:	f268                	fsw	fa0,100(a2)
    197a:	1e01                	addi	t3,t3,-32
    197c:	c2fe                	sw	t6,68(sp)
    197e:	6906                	flw	fs2,64(sp)
    1980:	575d                	li	a4,-9
    1982:	f762                	fsw	fs8,172(sp)
    1984:	806567cb          	fnmsub.s	fa5,fa0,ft6,fa6,unknown
    1988:	3671                	jal	1514 <__call_exitprocs+0x58>
    198a:	196c                	addi	a1,sp,188
    198c:	6e6b06e7          	jalr	a3,1766(s6)
    1990:	1b76                	slli	s6,s6,0x3d
    1992:	fed4                	fsw	fa3,60(a3)
    1994:	2be0                	fld	fs0,208(a5)
    1996:	7a5a89d3          	0x7a5a89d3
    199a:	10da                	slli	ra,ra,0x36
    199c:	4acc                	lw	a1,20(a3)
    199e:	67dd                	lui	a5,0x17
    19a0:	f9b9df6f          	jal	t5,fff9f93a <__global_pointer$+0xfff9c5fa>
    19a4:	eff9                	bnez	a5,1a82 <crc_32_tab+0x352>
    19a6:	8ebe                	mv	t4,a5
    19a8:	17b7be43          	fmadd.q	ft8,fa5,fs11,ft2,rup
    19ac:	8ed5                	or	a3,a3,a3
    19ae:	60b0                	flw	fa2,64(s1)
    19b0:	a3e8                	fsd	fa0,192(a5)
    19b2:	d6d6                	sw	s5,108(sp)
    19b4:	937e                	add	t1,t1,t6
    19b6:	a1d1                	j	1e7a <crc_32_tab+0x74a>
    19b8:	c2c4                	sw	s1,4(a3)
    19ba:	38d8                	fld	fa4,176(s1)
    19bc:	f252                	fsw	fs4,36(sp)
    19be:	4fdf 67f1 d1bb      	0xd1bb67f14fdf
    19c4:	a6bc5767          	0xa6bc5767
    19c8:	06dd                	addi	a3,a3,23
    19ca:	3fb5                	jal	1946 <crc_32_tab+0x216>
    19cc:	48b2364b          	fnmsub.s	fa2,ft4,fa1,fs1,rup
    19d0:	2bda                	fld	fs7,400(sp)
    19d2:	d80d                	beqz	s0,1904 <crc_32_tab+0x1d4>
    19d4:	1b4c                	addi	a1,sp,436
    19d6:	af0a                	fsd	ft2,408(sp)
    19d8:	4af6                	lw	s5,92(sp)
    19da:	7a603603          	0x7a603603
    19de:	4104                	lw	s1,0(a0)
    19e0:	df60efc3          	fmadd.q	ft11,ft1,fs6,fs11,unknown
    19e4:	df55                	beqz	a4,19a0 <crc_32_tab+0x270>
    19e6:	8eefa867          	0x8eefa867
    19ea:	316e                	fld	ft2,248(sp)
    19ec:	be79                	j	158a <__call_exitprocs+0xce>
    19ee:	4669                	li	a2,26
    19f0:	b38c                	fsd	fa1,32(a5)
    19f2:	cb61                	beqz	a4,1ac2 <crc_32_tab+0x392>
    19f4:	831a                	mv	t1,t1
    19f6:	bc66                	fsd	fs9,56(sp)
    19f8:	d2a0                	sw	s0,96(a3)
    19fa:	e236256f          	jal	a0,fff6481c <__global_pointer$+0xfff614dc>
    19fe:	5268                	lw	a0,100(a2)
    1a00:	7795                	lui	a5,0xfffe5
    1a02:	cc0c                	sw	a1,24(s0)
    1a04:	bb0b4703          	lbu	a4,-1104(s6)
    1a08:	16b9                	addi	a3,a3,-18
    1a0a:	2202                	fld	ft4,0(sp)
    1a0c:	5505262f          	0x5505262f
    1a10:	3bbe                	fld	fs7,488(sp)
    1a12:	c5ba                	sw	a4,200(sp)
    1a14:	0b28                	addi	a0,sp,408
    1a16:	b2bd                	j	1384 <__libc_init_array+0x40>
    1a18:	5a92                	lw	s5,36(sp)
    1a1a:	2bb4                	fld	fa3,80(a5)
    1a1c:	6a04                	flw	fs1,16(a2)
    1a1e:	ffa75cb3          	0xffa75cb3
    1a22:	cf31c2d7          	0xcf31c2d7
    1a26:	b5d0                	fsd	fa2,168(a1)
    1a28:	2cd99e8b          	0x2cd99e8b
    1a2c:	ae1d                	j	1d62 <crc_32_tab+0x632>
    1a2e:	5bde                	lw	s7,244(sp)
    1a30:	c2b0                	sw	a2,64(a3)
    1a32:	9b64                	0x9b64
    1a34:	f226                	fsw	fs1,36(sp)
    1a36:	a39cec63          	bltu	s9,s9,c6e <main-0x406>
    1a3a:	756a                	flw	fa0,184(sp)
    1a3c:	930a                	add	t1,t1,sp
    1a3e:	026d                	addi	tp,tp,27
    1a40:	06a9                	addi	a3,a3,10
    1a42:	9c09                	0x9c09
    1a44:	eb0e363f 72076785 	0x72076785eb0e363f
    1a4c:	05005713          	0x5005713
    1a50:	4a82                	lw	s5,0(sp)
    1a52:	7a1495bf 2baee2b8 	0x2baee2b87a1495bf
    1a5a:	7bb1                	lui	s7,0xfffec
    1a5c:	1b38                	addi	a4,sp,440
    1a5e:	0cb6                	slli	s9,s9,0xd
    1a60:	92d28e9b          	0x92d28e9b
    1a64:	be0d                	j	1596 <__call_exitprocs+0xda>
    1a66:	e5d5                	bnez	a1,1b12 <crc_32_tab+0x3e2>
    1a68:	7cdcefb7          	lui	t6,0x7cdce
    1a6c:	df21                	beqz	a4,19c4 <crc_32_tab+0x294>
    1a6e:	d2d40bdb          	0xd2d40bdb
    1a72:	e24286d3          	0xe24286d3
    1a76:	f1d4                	fsw	fa3,36(a1)
    1a78:	b3f8                	fsd	fa4,224(a5)
    1a7a:	68dd                	lui	a7,0x17
    1a7c:	836e                	mv	t1,s11
    1a7e:	1fda                	slli	t6,t6,0x36
    1a80:	16cd                	addi	a3,a3,-13
    1a82:	81be                	mv	gp,a5
    1a84:	f6b9265b          	0xf6b9265b
    1a88:	77e1                	lui	a5,0xffff8
    1a8a:	6fb0                	flw	fa2,88(a5)
    1a8c:	18b74777          	0x18b74777
    1a90:	5ae6                	lw	s5,120(sp)
    1a92:	8808                	0x8808
    1a94:	6a70                	flw	fa2,84(a2)
    1a96:	3bcaff0f          	0x3bcaff0f
    1a9a:	6606                	flw	fa2,64(sp)
    1a9c:	0b5c                	addi	a5,sp,404
    1a9e:	1101                	addi	sp,sp,-32
    1aa0:	9eff                	0x9eff
    1aa2:	8f65                	and	a4,a4,s1
    1aa4:	ae69                	j	1e3e <crc_32_tab+0x70e>
    1aa6:	f862                	fsw	fs8,48(sp)
    1aa8:	616bffd3          	0x616bffd3
    1aac:	cf45                	beqz	a4,1b64 <crc_32_tab+0x434>
    1aae:	166c                	addi	a1,sp,812
    1ab0:	e278                	fsw	fa4,68(a2)
    1ab2:	a00a                	fsd	ft2,0(sp)
    1ab4:	d2ee                	sw	s11,100(sp)
    1ab6:	d70d                	beqz	a4,19e0 <crc_32_tab+0x2b0>
    1ab8:	8354                	0x8354
    1aba:	4e04                	lw	s1,24(a2)
    1abc:	b3c2                	fsd	fa6,480(sp)
    1abe:	26613903          	0x26613903
    1ac2:	16f7a767          	0x16f7a767
    1ac6:	d060                	sw	s0,100(s0)
    1ac8:	474d                	li	a4,19
    1aca:	4969                	li	s2,26
    1acc:	3e6e77db          	0x3e6e77db
    1ad0:	6a4a                	flw	fs4,144(sp)
    1ad2:	aed1                	j	1ea6 <crc_32_tab+0x776>
    1ad4:	5adc                	lw	a5,52(a3)
    1ad6:	d9d6                	sw	s5,240(sp)
    1ad8:	0b66                	slli	s6,s6,0x19
    1ada:	40df 3bf0 37d8      	0x37d83bf040df
    1ae0:	a9bcae53          	0xa9bcae53
    1ae4:	9ec5                	0x9ec5
    1ae6:	cf7fdebb          	0xcf7fdebb
    1aea:	47b2                	lw	a5,12(sp)
    1aec:	ffe9                	bnez	a5,1ac6 <crc_32_tab+0x396>
    1aee:	30b5                	jal	135a <__libc_init_array+0x16>
    1af0:	f21c                	fsw	fa5,32(a2)
    1af2:	bdbd                	j	1970 <crc_32_tab+0x240>
    1af4:	c28a                	sw	sp,68(sp)
    1af6:	caba                	sw	a4,84(sp)
    1af8:	9330                	0x9330
    1afa:	a3a653b3          	0xa3a653b3
    1afe:	24b4                	fld	fa3,72(s1)
    1b00:	3605                	jal	1620 <__libc_fini_array+0x44>
    1b02:	bad0                	fsd	fa2,176(a3)
    1b04:	cdd70693          	addi	a3,a4,-803
    1b08:	5729                	li	a4,-22
    1b0a:	54de                	lw	s1,244(sp)
    1b0c:	23d967bf b3667a2e 	0xb3667a2e23d967bf
    1b14:	4ab8                	lw	a4,80(a3)
    1b16:	c461                	beqz	s0,1bde <crc_32_tab+0x4ae>
    1b18:	1b02                	slli	s6,s6,0x20
    1b1a:	5d68                	lw	a0,124(a0)
    1b1c:	2b94                	fld	fa3,16(a5)
    1b1e:	be372a6f          	jal	s4,fff74700 <__global_pointer$+0xfff713c0>
    1b22:	8ea1b40b          	0x8ea1b40b
    1b26:	c30c                	sw	a1,0(a4)
    1b28:	5a05df1b          	0x5a05df1b
    1b2c:	ef8d                	bnez	a5,1b66 <crc_32_tab+0x436>
    1b2e:	2d02                	fld	fs10,0(sp)

Disassembly of section .eh_frame:

00002b30 <__FRAME_END__>:
    2b30:	0000                	unimp
	...

Disassembly of section .init_array:

00002b34 <__init_array_start>:
    2b34:	10c4                	addi	s1,sp,100
	...

00002b38 <__frame_dummy_init_array_entry>:
    2b38:	1174                	addi	a3,sp,172
	...

Disassembly of section .fini_array:

00002b3c <__do_global_dtors_aux_fini_array_entry>:
    2b3c:	1128                	addi	a0,sp,168
	...

Disassembly of section .data:

00002b40 <impure_data>:
    2b40:	0000                	unimp
    2b42:	0000                	unimp
    2b44:	2e2c                	fld	fa1,88(a2)
    2b46:	0000                	unimp
    2b48:	2e94                	fld	fa3,24(a3)
    2b4a:	0000                	unimp
    2b4c:	2efc                	fld	fa5,216(a3)
	...
    2be6:	0000                	unimp
    2be8:	0001                	nop
    2bea:	0000                	unimp
    2bec:	0000                	unimp
    2bee:	0000                	unimp
    2bf0:	330e                	fld	ft6,224(sp)
    2bf2:	abcd                	j	31e4 <__BSS_END__+0x254>
    2bf4:	1234                	addi	a3,sp,296
    2bf6:	e66d                	bnez	a2,2ce0 <impure_data+0x1a0>
    2bf8:	deec                	sw	a1,124(a3)
    2bfa:	0005                	c.nop	1
    2bfc:	0000000b          	0xb
	...

Disassembly of section .sdata:

00002f68 <_global_impure_ptr>:
    2f68:	2b40                	fld	fs0,144(a4)
	...

00002f6c <_impure_ptr>:
    2f6c:	2b40                	fld	fs0,144(a4)
	...

Disassembly of section .sbss:

00002f70 <seed>:
    2f70:	0000                	unimp
	...

Disassembly of section .bss:

00002f74 <completed.5490>:
    2f74:	0000                	unimp
	...

00002f78 <object.5495>:
	...

Disassembly of section .comment:

00000000 <.comment>:
   0:	3a434347          	fmsub.d	ft6,ft6,ft4,ft7,rmm
   4:	2820                	fld	fs0,80(s0)
   6:	29554e47          	fmsub.s	ft8,fa0,fs5,ft5,rmm
   a:	3920                	fld	fs0,112(a0)
   c:	322e                	fld	ft4,232(sp)
   e:	302e                	fld	ft0,232(sp)
	...

Disassembly of section .riscv.attributes:

00000000 <.riscv.attributes>:
   0:	2041                	jal	80 <main-0xff4>
   2:	0000                	unimp
   4:	7200                	flw	fs0,32(a2)
   6:	7369                	lui	t1,0xffffa
   8:	01007663          	bgeu	zero,a6,14 <main-0x1060>
   c:	0016                	c.slli	zero,0x5
   e:	0000                	unimp
  10:	1004                	addi	s1,sp,32
  12:	7205                	lui	tp,0xfffe1
  14:	3376                	fld	ft6,376(sp)
  16:	6932                	flw	fs2,12(sp)
  18:	7032                	flw	ft0,44(sp)
  1a:	5f30                	lw	a2,120(a4)
  1c:	326d                	jal	fffff9c6 <__global_pointer$+0xffffc686>
  1e:	3070                	fld	fa2,224(s0)
	...
