
bd/src/nettle-aes/nettle-aes:     file format elf32-littleriscv


Disassembly of section .text:

00001074 <main>:
    1074:	fe010113          	addi	sp,sp,-32
    1078:	00112e23          	sw	ra,28(sp)
    107c:	00812c23          	sw	s0,24(sp)
    1080:	13c010ef          	jal	ra,21bc <initialise_board>
    1084:	128010ef          	jal	ra,21ac <initialise_benchmark>
    1088:	00100513          	li	a0,1
    108c:	124010ef          	jal	ra,21b0 <warm_caches>
    1090:	134010ef          	jal	ra,21c4 <start_trigger>
    1094:	120010ef          	jal	ra,21b4 <benchmark>
    1098:	00a12623          	sw	a0,12(sp)
    109c:	148010ef          	jal	ra,21e4 <stop_trigger>
    10a0:	00c12503          	lw	a0,12(sp)
    10a4:	0a4010ef          	jal	ra,2148 <verify_benchmark>
    10a8:	00050413          	mv	s0,a0
    10ac:	158010ef          	jal	ra,2204 <verify_trigger>
    10b0:	01c12083          	lw	ra,28(sp)
    10b4:	00143513          	seqz	a0,s0
    10b8:	01812403          	lw	s0,24(sp)
    10bc:	02010113          	addi	sp,sp,32
    10c0:	00008067          	ret

000010c4 <register_fini>:
    10c4:	00000793          	li	a5,0
    10c8:	00078863          	beqz	a5,10d8 <register_fini+0x14>
    10cc:	00002537          	lui	a0,0x2
    10d0:	4e450513          	addi	a0,a0,1252 # 24e4 <__libc_fini_array>
    10d4:	46c0106f          	j	2540 <atexit>
    10d8:	00008067          	ret

000010dc <_start>:
    10dc:	00004197          	auipc	gp,0x4
    10e0:	73418193          	addi	gp,gp,1844 # 5810 <__global_pointer$>
    10e4:	e5018513          	addi	a0,gp,-432 # 5660 <completed.5490>
    10e8:	25418613          	addi	a2,gp,596 # 5a64 <__BSS_END__>
    10ec:	40a60633          	sub	a2,a2,a0
    10f0:	00000593          	li	a1,0
    10f4:	1f4010ef          	jal	ra,22e8 <memset>
    10f8:	00001517          	auipc	a0,0x1
    10fc:	44850513          	addi	a0,a0,1096 # 2540 <atexit>
    1100:	00050863          	beqz	a0,1110 <_start+0x34>
    1104:	00001517          	auipc	a0,0x1
    1108:	3e050513          	addi	a0,a0,992 # 24e4 <__libc_fini_array>
    110c:	434010ef          	jal	ra,2540 <atexit>
    1110:	13c010ef          	jal	ra,224c <__libc_init_array>
    1114:	00012503          	lw	a0,0(sp)
    1118:	00410593          	addi	a1,sp,4
    111c:	00000613          	li	a2,0
    1120:	f55ff0ef          	jal	ra,1074 <main>
    1124:	0f80106f          	j	221c <exit>

00001128 <__do_global_dtors_aux>:
    1128:	e501c703          	lbu	a4,-432(gp) # 5660 <completed.5490>
    112c:	04071263          	bnez	a4,1170 <__do_global_dtors_aux+0x48>
    1130:	ff010113          	addi	sp,sp,-16
    1134:	00812423          	sw	s0,8(sp)
    1138:	00078413          	mv	s0,a5
    113c:	00112623          	sw	ra,12(sp)
    1140:	00000793          	li	a5,0
    1144:	00078a63          	beqz	a5,1158 <__do_global_dtors_aux+0x30>
    1148:	00005537          	lui	a0,0x5
    114c:	00050513          	mv	a0,a0
    1150:	00000097          	auipc	ra,0x0
    1154:	000000e7          	jalr	zero # 0 <main-0x1074>
    1158:	00100793          	li	a5,1
    115c:	00c12083          	lw	ra,12(sp)
    1160:	e4f18823          	sb	a5,-432(gp) # 5660 <completed.5490>
    1164:	00812403          	lw	s0,8(sp)
    1168:	01010113          	addi	sp,sp,16
    116c:	00008067          	ret
    1170:	00008067          	ret

00001174 <frame_dummy>:
    1174:	00000793          	li	a5,0
    1178:	00078c63          	beqz	a5,1190 <frame_dummy+0x1c>
    117c:	00005537          	lui	a0,0x5
    1180:	e5418593          	addi	a1,gp,-428 # 5664 <object.5495>
    1184:	00050513          	mv	a0,a0
    1188:	00000317          	auipc	t1,0x0
    118c:	00000067          	jr	zero # 0 <main-0x1074>
    1190:	00008067          	ret

00001194 <_aes_set_key>:
    1194:	18058463          	beqz	a1,131c <_aes_set_key+0x188>
    1198:	00150513          	addi	a0,a0,1 # 5001 <__FRAME_END__+0x1>
    119c:	00259e93          	slli	t4,a1,0x2
    11a0:	00251513          	slli	a0,a0,0x2
    11a4:	00060893          	mv	a7,a2
    11a8:	01d68e33          	add	t3,a3,t4
    11ac:	0036c783          	lbu	a5,3(a3)
    11b0:	0026c803          	lbu	a6,2(a3)
    11b4:	0006c303          	lbu	t1,0(a3)
    11b8:	0016c703          	lbu	a4,1(a3)
    11bc:	01879793          	slli	a5,a5,0x18
    11c0:	01081813          	slli	a6,a6,0x10
    11c4:	0107e7b3          	or	a5,a5,a6
    11c8:	0067e7b3          	or	a5,a5,t1
    11cc:	00871713          	slli	a4,a4,0x8
    11d0:	00e7e7b3          	or	a5,a5,a4
    11d4:	00f8a023          	sw	a5,0(a7)
    11d8:	00468693          	addi	a3,a3,4
    11dc:	00488893          	addi	a7,a7,4
    11e0:	fcde16e3          	bne	t3,a3,11ac <_aes_set_key+0x18>
    11e4:	12a5fa63          	bgeu	a1,a0,1318 <_aes_set_key+0x184>
    11e8:	40b00e33          	neg	t3,a1
    11ec:	00005337          	lui	t1,0x5
    11f0:	000038b7          	lui	a7,0x3
    11f4:	01d60633          	add	a2,a2,t4
    11f8:	002e1e13          	slli	t3,t3,0x2
    11fc:	00058693          	mv	a3,a1
    1200:	c3830313          	addi	t1,t1,-968 # 4c38 <rcon.2170>
    1204:	00600e93          	li	t4,6
    1208:	00400f13          	li	t5,4
    120c:	73888893          	addi	a7,a7,1848 # 3738 <_aes_encrypt_table>
    1210:	0880006f          	j	1298 <_aes_set_key+0x104>
    1214:	0087d713          	srli	a4,a5,0x8
    1218:	01879793          	slli	a5,a5,0x18
    121c:	00e7e7b3          	or	a5,a5,a4
    1220:	0187d713          	srli	a4,a5,0x18
    1224:	0087d813          	srli	a6,a5,0x8
    1228:	0ff7ff93          	andi	t6,a5,255
    122c:	00e88733          	add	a4,a7,a4
    1230:	0ff87813          	andi	a6,a6,255
    1234:	0107d793          	srli	a5,a5,0x10
    1238:	01f88fb3          	add	t6,a7,t6
    123c:	01088833          	add	a6,a7,a6
    1240:	00074703          	lbu	a4,0(a4)
    1244:	0ff7f793          	andi	a5,a5,255
    1248:	000fc283          	lbu	t0,0(t6)
    124c:	00f887b3          	add	a5,a7,a5
    1250:	00084f83          	lbu	t6,0(a6)
    1254:	0007c803          	lbu	a6,0(a5)
    1258:	01871713          	slli	a4,a4,0x18
    125c:	00034783          	lbu	a5,0(t1)
    1260:	00576733          	or	a4,a4,t0
    1264:	008f9f93          	slli	t6,t6,0x8
    1268:	01f76733          	or	a4,a4,t6
    126c:	01081813          	slli	a6,a6,0x10
    1270:	01076733          	or	a4,a4,a6
    1274:	00f747b3          	xor	a5,a4,a5
    1278:	00130313          	addi	t1,t1,1
    127c:	01c60733          	add	a4,a2,t3
    1280:	00072703          	lw	a4,0(a4)
    1284:	00460613          	addi	a2,a2,4
    1288:	00168693          	addi	a3,a3,1
    128c:	00f747b3          	xor	a5,a4,a5
    1290:	fef62e23          	sw	a5,-4(a2)
    1294:	08d50263          	beq	a0,a3,1318 <_aes_set_key+0x184>
    1298:	02b6f733          	remu	a4,a3,a1
    129c:	ffc62783          	lw	a5,-4(a2)
    12a0:	f6070ae3          	beqz	a4,1214 <_aes_set_key+0x80>
    12a4:	fcbefce3          	bgeu	t4,a1,127c <_aes_set_key+0xe8>
    12a8:	fde71ae3          	bne	a4,t5,127c <_aes_set_key+0xe8>
    12ac:	0187d713          	srli	a4,a5,0x18
    12b0:	0087df93          	srli	t6,a5,0x8
    12b4:	0107d813          	srli	a6,a5,0x10
    12b8:	00e88733          	add	a4,a7,a4
    12bc:	0ff7f793          	andi	a5,a5,255
    12c0:	0fffff93          	andi	t6,t6,255
    12c4:	00f887b3          	add	a5,a7,a5
    12c8:	00074703          	lbu	a4,0(a4)
    12cc:	0ff87813          	andi	a6,a6,255
    12d0:	01f88fb3          	add	t6,a7,t6
    12d4:	0007c283          	lbu	t0,0(a5)
    12d8:	01088833          	add	a6,a7,a6
    12dc:	000fcf83          	lbu	t6,0(t6)
    12e0:	00084783          	lbu	a5,0(a6)
    12e4:	01871713          	slli	a4,a4,0x18
    12e8:	00576733          	or	a4,a4,t0
    12ec:	008f9813          	slli	a6,t6,0x8
    12f0:	01076733          	or	a4,a4,a6
    12f4:	01079793          	slli	a5,a5,0x10
    12f8:	00e7e7b3          	or	a5,a5,a4
    12fc:	01c60733          	add	a4,a2,t3
    1300:	00072703          	lw	a4,0(a4)
    1304:	00460613          	addi	a2,a2,4
    1308:	00168693          	addi	a3,a3,1
    130c:	00f747b3          	xor	a5,a4,a5
    1310:	fef62e23          	sw	a5,-4(a2)
    1314:	f8d512e3          	bne	a0,a3,1298 <_aes_set_key+0x104>
    1318:	00008067          	ret
    131c:	ff010113          	addi	sp,sp,-16
    1320:	00100513          	li	a0,1
    1324:	00112623          	sw	ra,12(sp)
    1328:	6f5000ef          	jal	ra,221c <exit>

0000132c <aes_set_encrypt_key>:
    132c:	ff058813          	addi	a6,a1,-16
    1330:	01000713          	li	a4,16
    1334:	05076c63          	bltu	a4,a6,138c <aes_set_encrypt_key+0x60>
    1338:	02000713          	li	a4,32
    133c:	00050793          	mv	a5,a0
    1340:	00060693          	mv	a3,a2
    1344:	02e58a63          	beq	a1,a4,1378 <aes_set_encrypt_key+0x4c>
    1348:	01700713          	li	a4,23
    134c:	00b76c63          	bltu	a4,a1,1364 <aes_set_encrypt_key+0x38>
    1350:	00a00513          	li	a0,10
    1354:	00400593          	li	a1,4
    1358:	00a7a023          	sw	a0,0(a5)
    135c:	00478613          	addi	a2,a5,4
    1360:	e35ff06f          	j	1194 <_aes_set_key>
    1364:	00c00513          	li	a0,12
    1368:	00600593          	li	a1,6
    136c:	00a7a023          	sw	a0,0(a5)
    1370:	00478613          	addi	a2,a5,4
    1374:	e21ff06f          	j	1194 <_aes_set_key>
    1378:	00e00513          	li	a0,14
    137c:	00800593          	li	a1,8
    1380:	00a7a023          	sw	a0,0(a5)
    1384:	00478613          	addi	a2,a5,4
    1388:	e0dff06f          	j	1194 <_aes_set_key>
    138c:	ff010113          	addi	sp,sp,-16
    1390:	00100513          	li	a0,1
    1394:	00112623          	sw	ra,12(sp)
    1398:	685000ef          	jal	ra,221c <exit>

0000139c <_nettle_aes_invert>:
    139c:	00251f13          	slli	t5,a0,0x2
    13a0:	04b60863          	beq	a2,a1,13f0 <_nettle_aes_invert+0x54>
    13a4:	00451793          	slli	a5,a0,0x4
    13a8:	00f60633          	add	a2,a2,a5
    13ac:	00058893          	mv	a7,a1
    13b0:	ffcf7e93          	andi	t4,t5,-4
    13b4:	00000e13          	li	t3,0
    13b8:	01000313          	li	t1,16
    13bc:	00000793          	li	a5,0
    13c0:	00f60733          	add	a4,a2,a5
    13c4:	00072683          	lw	a3,0(a4)
    13c8:	00f88733          	add	a4,a7,a5
    13cc:	00478793          	addi	a5,a5,4
    13d0:	00d72023          	sw	a3,0(a4)
    13d4:	fe6796e3          	bne	a5,t1,13c0 <_nettle_aes_invert+0x24>
    13d8:	004e0793          	addi	a5,t3,4
    13dc:	ff060613          	addi	a2,a2,-16
    13e0:	01088893          	addi	a7,a7,16
    13e4:	07ce8063          	beq	t4,t3,1444 <_nettle_aes_invert+0xa8>
    13e8:	00078e13          	mv	t3,a5
    13ec:	fd1ff06f          	j	13bc <_nettle_aes_invert+0x20>
    13f0:	0e0f0863          	beqz	t5,14e0 <_nettle_aes_invert+0x144>
    13f4:	00351813          	slli	a6,a0,0x3
    13f8:	00b80833          	add	a6,a6,a1
    13fc:	00181813          	slli	a6,a6,0x1
    1400:	01058693          	addi	a3,a1,16
    1404:	000f0e13          	mv	t3,t5
    1408:	00000313          	li	t1,0
    140c:	01080813          	addi	a6,a6,16
    1410:	ff068793          	addi	a5,a3,-16
    1414:	40d80733          	sub	a4,a6,a3
    1418:	00072883          	lw	a7,0(a4)
    141c:	0007a603          	lw	a2,0(a5)
    1420:	00478793          	addi	a5,a5,4
    1424:	00470713          	addi	a4,a4,4
    1428:	ff17ae23          	sw	a7,-4(a5)
    142c:	fec72e23          	sw	a2,-4(a4)
    1430:	fef694e3          	bne	a3,a5,1418 <_nettle_aes_invert+0x7c>
    1434:	00430313          	addi	t1,t1,4
    1438:	ffce0e13          	addi	t3,t3,-4
    143c:	01068693          	addi	a3,a3,16
    1440:	fdc368e3          	bltu	t1,t3,1410 <_nettle_aes_invert+0x74>
    1444:	00400793          	li	a5,4
    1448:	09e7fe63          	bgeu	a5,t5,14e4 <_nettle_aes_invert+0x148>
    144c:	00451793          	slli	a5,a0,0x4
    1450:	00f58833          	add	a6,a1,a5
    1454:	01058513          	addi	a0,a1,16
    1458:	000055b7          	lui	a1,0x5
    145c:	83858593          	addi	a1,a1,-1992 # 4838 <mtable>
    1460:	00052783          	lw	a5,0(a0)
    1464:	00450513          	addi	a0,a0,4
    1468:	0187d613          	srli	a2,a5,0x18
    146c:	0067d713          	srli	a4,a5,0x6
    1470:	00261613          	slli	a2,a2,0x2
    1474:	00c58633          	add	a2,a1,a2
    1478:	0ff7f693          	andi	a3,a5,255
    147c:	3fc77713          	andi	a4,a4,1020
    1480:	00e7d793          	srli	a5,a5,0xe
    1484:	00062883          	lw	a7,0(a2)
    1488:	00269693          	slli	a3,a3,0x2
    148c:	00e58733          	add	a4,a1,a4
    1490:	3fc7f793          	andi	a5,a5,1020
    1494:	00072703          	lw	a4,0(a4)
    1498:	00d586b3          	add	a3,a1,a3
    149c:	00f587b3          	add	a5,a1,a5
    14a0:	0007a603          	lw	a2,0(a5)
    14a4:	0006a303          	lw	t1,0(a3)
    14a8:	0088d793          	srli	a5,a7,0x8
    14ac:	01889893          	slli	a7,a7,0x18
    14b0:	00871693          	slli	a3,a4,0x8
    14b4:	0117e7b3          	or	a5,a5,a7
    14b8:	01875713          	srli	a4,a4,0x18
    14bc:	00e6e6b3          	or	a3,a3,a4
    14c0:	0067c7b3          	xor	a5,a5,t1
    14c4:	01061713          	slli	a4,a2,0x10
    14c8:	01065613          	srli	a2,a2,0x10
    14cc:	00d7c7b3          	xor	a5,a5,a3
    14d0:	00c76733          	or	a4,a4,a2
    14d4:	00f747b3          	xor	a5,a4,a5
    14d8:	fef52e23          	sw	a5,-4(a0)
    14dc:	f8a812e3          	bne	a6,a0,1460 <_nettle_aes_invert+0xc4>
    14e0:	00008067          	ret
    14e4:	00008067          	ret

000014e8 <aes_set_decrypt_key>:
    14e8:	ff010113          	addi	sp,sp,-16
    14ec:	00812423          	sw	s0,8(sp)
    14f0:	00112623          	sw	ra,12(sp)
    14f4:	00050413          	mv	s0,a0
    14f8:	e35ff0ef          	jal	ra,132c <aes_set_encrypt_key>
    14fc:	00042503          	lw	a0,0(s0)
    1500:	00440613          	addi	a2,s0,4
    1504:	00812403          	lw	s0,8(sp)
    1508:	00c12083          	lw	ra,12(sp)
    150c:	00060593          	mv	a1,a2
    1510:	01010113          	addi	sp,sp,16
    1514:	e89ff06f          	j	139c <_nettle_aes_invert>

00001518 <_nettle_aes_encrypt>:
    1518:	fb010113          	addi	sp,sp,-80
    151c:	04112623          	sw	ra,76(sp)
    1520:	04812423          	sw	s0,72(sp)
    1524:	04912223          	sw	s1,68(sp)
    1528:	05212023          	sw	s2,64(sp)
    152c:	03312e23          	sw	s3,60(sp)
    1530:	03412c23          	sw	s4,56(sp)
    1534:	03512a23          	sw	s5,52(sp)
    1538:	03612823          	sw	s6,48(sp)
    153c:	03712623          	sw	s7,44(sp)
    1540:	03812423          	sw	s8,40(sp)
    1544:	03912223          	sw	s9,36(sp)
    1548:	03a12023          	sw	s10,32(sp)
    154c:	01b12e23          	sw	s11,28(sp)
    1550:	00f6f813          	andi	a6,a3,15
    1554:	52081463          	bnez	a6,1a7c <_nettle_aes_encrypt+0x564>
    1558:	4c068a63          	beqz	a3,1a2c <_nettle_aes_encrypt+0x514>
    155c:	00451a13          	slli	s4,a0,0x4
    1560:	00050993          	mv	s3,a0
    1564:	00078513          	mv	a0,a5
    1568:	004a0793          	addi	a5,s4,4
    156c:	00f12223          	sw	a5,4(sp)
    1570:	008a0793          	addi	a5,s4,8
    1574:	00f12423          	sw	a5,8(sp)
    1578:	00ca0793          	addi	a5,s4,12
    157c:	00f12623          	sw	a5,12(sp)
    1580:	00d507b3          	add	a5,a0,a3
    1584:	00058493          	mv	s1,a1
    1588:	00070413          	mv	s0,a4
    158c:	01458933          	add	s2,a1,s4
    1590:	00f12023          	sw	a5,0(sp)
    1594:	00154283          	lbu	t0,1(a0)
    1598:	00554f83          	lbu	t6,5(a0)
    159c:	00954f03          	lbu	t5,9(a0)
    15a0:	00d54e83          	lbu	t4,13(a0)
    15a4:	00054b83          	lbu	s7,0(a0)
    15a8:	00254783          	lbu	a5,2(a0)
    15ac:	00454b03          	lbu	s6,4(a0)
    15b0:	00654703          	lbu	a4,6(a0)
    15b4:	00854a83          	lbu	s5,8(a0)
    15b8:	00a54803          	lbu	a6,10(a0)
    15bc:	00c54383          	lbu	t2,12(a0)
    15c0:	00e54683          	lbu	a3,14(a0)
    15c4:	00f54583          	lbu	a1,15(a0)
    15c8:	00354e03          	lbu	t3,3(a0)
    15cc:	00754303          	lbu	t1,7(a0)
    15d0:	00b54883          	lbu	a7,11(a0)
    15d4:	00829293          	slli	t0,t0,0x8
    15d8:	008f9f93          	slli	t6,t6,0x8
    15dc:	008f1f13          	slli	t5,t5,0x8
    15e0:	008e9e93          	slli	t4,t4,0x8
    15e4:	01079793          	slli	a5,a5,0x10
    15e8:	01071713          	slli	a4,a4,0x10
    15ec:	01069693          	slli	a3,a3,0x10
    15f0:	0004ac03          	lw	s8,0(s1)
    15f4:	0044ac83          	lw	s9,4(s1)
    15f8:	0084ad03          	lw	s10,8(s1)
    15fc:	00c4ad83          	lw	s11,12(s1)
    1600:	0172e2b3          	or	t0,t0,s7
    1604:	016fefb3          	or	t6,t6,s6
    1608:	015f6f33          	or	t5,t5,s5
    160c:	01081813          	slli	a6,a6,0x10
    1610:	007eeeb3          	or	t4,t4,t2
    1614:	01f76fb3          	or	t6,a4,t6
    1618:	01d6eeb3          	or	t4,a3,t4
    161c:	0057e2b3          	or	t0,a5,t0
    1620:	01859693          	slli	a3,a1,0x18
    1624:	018e1e13          	slli	t3,t3,0x18
    1628:	01831713          	slli	a4,t1,0x18
    162c:	01e86833          	or	a6,a6,t5
    1630:	01889893          	slli	a7,a7,0x18
    1634:	005e67b3          	or	a5,t3,t0
    1638:	01f76733          	or	a4,a4,t6
    163c:	0108e833          	or	a6,a7,a6
    1640:	01d6e6b3          	or	a3,a3,t4
    1644:	00100593          	li	a1,1
    1648:	0187c7b3          	xor	a5,a5,s8
    164c:	01974733          	xor	a4,a4,s9
    1650:	01a84833          	xor	a6,a6,s10
    1654:	01b6c6b3          	xor	a3,a3,s11
    1658:	4135f863          	bgeu	a1,s3,1a68 <_nettle_aes_encrypt+0x550>
    165c:	00078293          	mv	t0,a5
    1660:	01048393          	addi	t2,s1,16
    1664:	00080793          	mv	a5,a6
    1668:	0186db93          	srli	s7,a3,0x18
    166c:	0ff77b13          	andi	s6,a4,255
    1670:	0ff7fd13          	andi	s10,a5,255
    1674:	01875f93          	srli	t6,a4,0x18
    1678:	0ff2fc13          	andi	s8,t0,255
    167c:	0182da93          	srli	s5,t0,0x18
    1680:	0187df13          	srli	t5,a5,0x18
    1684:	340b8b93          	addi	s7,s7,832
    1688:	040b0b13          	addi	s6,s6,64
    168c:	040d0d13          	addi	s10,s10,64
    1690:	340f8f93          	addi	t6,t6,832
    1694:	00070c93          	mv	s9,a4
    1698:	002d1d13          	slli	s10,s10,0x2
    169c:	040c0c13          	addi	s8,s8,64
    16a0:	340a8a93          	addi	s5,s5,832
    16a4:	340f0f13          	addi	t5,t5,832
    16a8:	002b9b93          	slli	s7,s7,0x2
    16ac:	002b1b13          	slli	s6,s6,0x2
    16b0:	002f9f93          	slli	t6,t6,0x2
    16b4:	00875e93          	srli	t4,a4,0x8
    16b8:	0106d813          	srli	a6,a3,0x10
    16bc:	0ff6f593          	andi	a1,a3,255
    16c0:	0087de13          	srli	t3,a5,0x8
    16c4:	0082d893          	srli	a7,t0,0x8
    16c8:	0107d713          	srli	a4,a5,0x10
    16cc:	010cdc93          	srli	s9,s9,0x10
    16d0:	0102d793          	srli	a5,t0,0x10
    16d4:	01760bb3          	add	s7,a2,s7
    16d8:	01a602b3          	add	t0,a2,s10
    16dc:	01660b33          	add	s6,a2,s6
    16e0:	01f60fb3          	add	t6,a2,t6
    16e4:	002c1c13          	slli	s8,s8,0x2
    16e8:	002a9a93          	slli	s5,s5,0x2
    16ec:	002f1f13          	slli	t5,t5,0x2
    16f0:	000bad03          	lw	s10,0(s7)
    16f4:	0086d313          	srli	t1,a3,0x8
    16f8:	0002ab83          	lw	s7,0(t0)
    16fc:	0ffef693          	andi	a3,t4,255
    1700:	01860c33          	add	s8,a2,s8
    1704:	01560ab3          	add	s5,a2,s5
    1708:	0ff87e93          	andi	t4,a6,255
    170c:	01e60f33          	add	t5,a2,t5
    1710:	0ffcf813          	andi	a6,s9,255
    1714:	04058593          	addi	a1,a1,64
    1718:	000b2c83          	lw	s9,0(s6)
    171c:	000fab03          	lw	s6,0(t6)
    1720:	000c2d83          	lw	s11,0(s8)
    1724:	0ffe7e13          	andi	t3,t3,255
    1728:	000aac03          	lw	s8,0(s5)
    172c:	0ff37313          	andi	t1,t1,255
    1730:	000f2a83          	lw	s5,0(t5)
    1734:	00259593          	slli	a1,a1,0x2
    1738:	0083af03          	lw	t5,8(t2)
    173c:	0ff8f893          	andi	a7,a7,255
    1740:	14068693          	addi	a3,a3,320
    1744:	0ff77713          	andi	a4,a4,255
    1748:	140e0e13          	addi	t3,t3,320
    174c:	14030313          	addi	t1,t1,320
    1750:	0ff7f793          	andi	a5,a5,255
    1754:	00b605b3          	add	a1,a2,a1
    1758:	14088893          	addi	a7,a7,320
    175c:	0005a583          	lw	a1,0(a1)
    1760:	00269693          	slli	a3,a3,0x2
    1764:	24070713          	addi	a4,a4,576
    1768:	002e1e13          	slli	t3,t3,0x2
    176c:	240e8e93          	addi	t4,t4,576
    1770:	00231313          	slli	t1,t1,0x2
    1774:	24078793          	addi	a5,a5,576
    1778:	00289893          	slli	a7,a7,0x2
    177c:	24080813          	addi	a6,a6,576
    1780:	016bcb33          	xor	s6,s7,s6
    1784:	0003a283          	lw	t0,0(t2)
    1788:	0043af83          	lw	t6,4(t2)
    178c:	01eb4b33          	xor	s6,s6,t5
    1790:	00d606b3          	add	a3,a2,a3
    1794:	00c3af03          	lw	t5,12(t2)
    1798:	00271713          	slli	a4,a4,0x2
    179c:	01c60e33          	add	t3,a2,t3
    17a0:	002e9e93          	slli	t4,t4,0x2
    17a4:	00660333          	add	t1,a2,t1
    17a8:	00279793          	slli	a5,a5,0x2
    17ac:	011608b3          	add	a7,a2,a7
    17b0:	00281813          	slli	a6,a6,0x2
    17b4:	0006a683          	lw	a3,0(a3)
    17b8:	000e2e03          	lw	t3,0(t3)
    17bc:	00032303          	lw	t1,0(t1)
    17c0:	0008a883          	lw	a7,0(a7)
    17c4:	00e60733          	add	a4,a2,a4
    17c8:	01d60eb3          	add	t4,a2,t4
    17cc:	00f607b3          	add	a5,a2,a5
    17d0:	01060833          	add	a6,a2,a6
    17d4:	00072703          	lw	a4,0(a4)
    17d8:	000eae83          	lw	t4,0(t4)
    17dc:	0007a783          	lw	a5,0(a5)
    17e0:	00082803          	lw	a6,0(a6)
    17e4:	01adcd33          	xor	s10,s11,s10
    17e8:	018ccc33          	xor	s8,s9,s8
    17ec:	0155c5b3          	xor	a1,a1,s5
    17f0:	005d42b3          	xor	t0,s10,t0
    17f4:	01fc4fb3          	xor	t6,s8,t6
    17f8:	01e5c5b3          	xor	a1,a1,t5
    17fc:	00d2c2b3          	xor	t0,t0,a3
    1800:	01cfce33          	xor	t3,t6,t3
    1804:	006b4333          	xor	t1,s6,t1
    1808:	0115c8b3          	xor	a7,a1,a7
    180c:	01038393          	addi	t2,t2,16
    1810:	00e2c2b3          	xor	t0,t0,a4
    1814:	00f347b3          	xor	a5,t1,a5
    1818:	01de4733          	xor	a4,t3,t4
    181c:	0108c6b3          	xor	a3,a7,a6
    1820:	e52394e3          	bne	t2,s2,1668 <_nettle_aes_encrypt+0x150>
    1824:	00c12c03          	lw	s8,12(sp)
    1828:	00812c83          	lw	s9,8(sp)
    182c:	00412d03          	lw	s10,4(sp)
    1830:	00078813          	mv	a6,a5
    1834:	000a0d93          	mv	s11,s4
    1838:	00028793          	mv	a5,t0
    183c:	0186db93          	srli	s7,a3,0x18
    1840:	00875f13          	srli	t5,a4,0x8
    1844:	0187db13          	srli	s6,a5,0x18
    1848:	00885e93          	srli	t4,a6,0x8
    184c:	01875a93          	srli	s5,a4,0x18
    1850:	0086de13          	srli	t3,a3,0x8
    1854:	0ff7f393          	andi	t2,a5,255
    1858:	01085313          	srli	t1,a6,0x10
    185c:	0ff77293          	andi	t0,a4,255
    1860:	0106d893          	srli	a7,a3,0x10
    1864:	0ff87f93          	andi	t6,a6,255
    1868:	0107d593          	srli	a1,a5,0x10
    186c:	01760bb3          	add	s7,a2,s7
    1870:	0fff7f13          	andi	t5,t5,255
    1874:	01660b33          	add	s6,a2,s6
    1878:	0ffefe93          	andi	t4,t4,255
    187c:	01560ab3          	add	s5,a2,s5
    1880:	0ffe7e13          	andi	t3,t3,255
    1884:	01885813          	srli	a6,a6,0x18
    1888:	0087d793          	srli	a5,a5,0x8
    188c:	000bcb83          	lbu	s7,0(s7)
    1890:	000b4b03          	lbu	s6,0(s6)
    1894:	000aca83          	lbu	s5,0(s5)
    1898:	007603b3          	add	t2,a2,t2
    189c:	01e60f33          	add	t5,a2,t5
    18a0:	0ff37313          	andi	t1,t1,255
    18a4:	005602b3          	add	t0,a2,t0
    18a8:	01d60eb3          	add	t4,a2,t4
    18ac:	0ff8f893          	andi	a7,a7,255
    18b0:	01f60fb3          	add	t6,a2,t6
    18b4:	01c60e33          	add	t3,a2,t3
    18b8:	0ff5f593          	andi	a1,a1,255
    18bc:	01060833          	add	a6,a2,a6
    18c0:	0ff6f693          	andi	a3,a3,255
    18c4:	0ff7f793          	andi	a5,a5,255
    18c8:	01075713          	srli	a4,a4,0x10
    18cc:	0003c383          	lbu	t2,0(t2)
    18d0:	000f4f03          	lbu	t5,0(t5)
    18d4:	0002c283          	lbu	t0,0(t0)
    18d8:	000ece83          	lbu	t4,0(t4)
    18dc:	000fcf83          	lbu	t6,0(t6)
    18e0:	000e4e03          	lbu	t3,0(t3)
    18e4:	00084803          	lbu	a6,0(a6)
    18e8:	00660333          	add	t1,a2,t1
    18ec:	011608b3          	add	a7,a2,a7
    18f0:	00b605b3          	add	a1,a2,a1
    18f4:	00d606b3          	add	a3,a2,a3
    18f8:	00f607b3          	add	a5,a2,a5
    18fc:	0ff77713          	andi	a4,a4,255
    1900:	0006c683          	lbu	a3,0(a3)
    1904:	0007c783          	lbu	a5,0(a5)
    1908:	00034303          	lbu	t1,0(t1)
    190c:	0008c883          	lbu	a7,0(a7)
    1910:	0005c583          	lbu	a1,0(a1)
    1914:	00e60733          	add	a4,a2,a4
    1918:	00074703          	lbu	a4,0(a4)
    191c:	018b9b93          	slli	s7,s7,0x18
    1920:	01b48db3          	add	s11,s1,s11
    1924:	018b1b13          	slli	s6,s6,0x18
    1928:	01a48d33          	add	s10,s1,s10
    192c:	018a9a93          	slli	s5,s5,0x18
    1930:	01948cb3          	add	s9,s1,s9
    1934:	000dad83          	lw	s11,0(s11)
    1938:	000d2d03          	lw	s10,0(s10)
    193c:	000cac83          	lw	s9,0(s9)
    1940:	008e9e93          	slli	t4,t4,0x8
    1944:	008e1e13          	slli	t3,t3,0x8
    1948:	007bebb3          	or	s7,s7,t2
    194c:	008f1f13          	slli	t5,t5,0x8
    1950:	005b6b33          	or	s6,s6,t0
    1954:	01faeab3          	or	s5,s5,t6
    1958:	01881813          	slli	a6,a6,0x18
    195c:	01848c33          	add	s8,s1,s8
    1960:	000c2c03          	lw	s8,0(s8)
    1964:	00d86833          	or	a6,a6,a3
    1968:	01031313          	slli	t1,t1,0x10
    196c:	01db6b33          	or	s6,s6,t4
    1970:	01089893          	slli	a7,a7,0x10
    1974:	01caeab3          	or	s5,s5,t3
    1978:	01059593          	slli	a1,a1,0x10
    197c:	00879693          	slli	a3,a5,0x8
    1980:	01ebebb3          	or	s7,s7,t5
    1984:	00d866b3          	or	a3,a6,a3
    1988:	006bebb3          	or	s7,s7,t1
    198c:	011b6b33          	or	s6,s6,a7
    1990:	00baeab3          	or	s5,s5,a1
    1994:	01071713          	slli	a4,a4,0x10
    1998:	01bbcdb3          	xor	s11,s7,s11
    199c:	01ab4d33          	xor	s10,s6,s10
    19a0:	019accb3          	xor	s9,s5,s9
    19a4:	00e6e733          	or	a4,a3,a4
    19a8:	01874c33          	xor	s8,a4,s8
    19ac:	018cd693          	srli	a3,s9,0x18
    19b0:	010cd713          	srli	a4,s9,0x10
    19b4:	008cd793          	srli	a5,s9,0x8
    19b8:	018dde93          	srli	t4,s11,0x18
    19bc:	010dde13          	srli	t3,s11,0x10
    19c0:	008dd313          	srli	t1,s11,0x8
    19c4:	018d5893          	srli	a7,s10,0x18
    19c8:	010d5813          	srli	a6,s10,0x10
    19cc:	008d5593          	srli	a1,s10,0x8
    19d0:	00d405a3          	sb	a3,11(s0)
    19d4:	00e40523          	sb	a4,10(s0)
    19d8:	00f404a3          	sb	a5,9(s0)
    19dc:	01d401a3          	sb	t4,3(s0)
    19e0:	01c40123          	sb	t3,2(s0)
    19e4:	006400a3          	sb	t1,1(s0)
    19e8:	01b40023          	sb	s11,0(s0)
    19ec:	011403a3          	sb	a7,7(s0)
    19f0:	01040323          	sb	a6,6(s0)
    19f4:	00b402a3          	sb	a1,5(s0)
    19f8:	01a40223          	sb	s10,4(s0)
    19fc:	01940423          	sb	s9,8(s0)
    1a00:	008c5793          	srli	a5,s8,0x8
    1a04:	018c5693          	srli	a3,s8,0x18
    1a08:	00d407a3          	sb	a3,15(s0)
    1a0c:	00f406a3          	sb	a5,13(s0)
    1a10:	00012783          	lw	a5,0(sp)
    1a14:	010c5713          	srli	a4,s8,0x10
    1a18:	00e40723          	sb	a4,14(s0)
    1a1c:	01840623          	sb	s8,12(s0)
    1a20:	01050513          	addi	a0,a0,16
    1a24:	01040413          	addi	s0,s0,16
    1a28:	b6f516e3          	bne	a0,a5,1594 <_nettle_aes_encrypt+0x7c>
    1a2c:	04c12083          	lw	ra,76(sp)
    1a30:	04812403          	lw	s0,72(sp)
    1a34:	04412483          	lw	s1,68(sp)
    1a38:	04012903          	lw	s2,64(sp)
    1a3c:	03c12983          	lw	s3,60(sp)
    1a40:	03812a03          	lw	s4,56(sp)
    1a44:	03412a83          	lw	s5,52(sp)
    1a48:	03012b03          	lw	s6,48(sp)
    1a4c:	02c12b83          	lw	s7,44(sp)
    1a50:	02812c03          	lw	s8,40(sp)
    1a54:	02412c83          	lw	s9,36(sp)
    1a58:	02012d03          	lw	s10,32(sp)
    1a5c:	01c12d83          	lw	s11,28(sp)
    1a60:	05010113          	addi	sp,sp,80
    1a64:	00008067          	ret
    1a68:	01c00c13          	li	s8,28
    1a6c:	01800c93          	li	s9,24
    1a70:	01400d13          	li	s10,20
    1a74:	01000d93          	li	s11,16
    1a78:	dc5ff06f          	j	183c <_nettle_aes_encrypt+0x324>
    1a7c:	00100513          	li	a0,1
    1a80:	79c000ef          	jal	ra,221c <exit>

00001a84 <_nettle_aes_decrypt>:
    1a84:	fb010113          	addi	sp,sp,-80
    1a88:	04112623          	sw	ra,76(sp)
    1a8c:	04812423          	sw	s0,72(sp)
    1a90:	04912223          	sw	s1,68(sp)
    1a94:	05212023          	sw	s2,64(sp)
    1a98:	03312e23          	sw	s3,60(sp)
    1a9c:	03412c23          	sw	s4,56(sp)
    1aa0:	03512a23          	sw	s5,52(sp)
    1aa4:	03612823          	sw	s6,48(sp)
    1aa8:	03712623          	sw	s7,44(sp)
    1aac:	03812423          	sw	s8,40(sp)
    1ab0:	03912223          	sw	s9,36(sp)
    1ab4:	03a12023          	sw	s10,32(sp)
    1ab8:	01b12e23          	sw	s11,28(sp)
    1abc:	00f6f813          	andi	a6,a3,15
    1ac0:	52081263          	bnez	a6,1fe4 <_nettle_aes_decrypt+0x560>
    1ac4:	4c068863          	beqz	a3,1f94 <_nettle_aes_decrypt+0x510>
    1ac8:	00050913          	mv	s2,a0
    1acc:	00491993          	slli	s3,s2,0x4
    1ad0:	00058413          	mv	s0,a1
    1ad4:	00078593          	mv	a1,a5
    1ad8:	00498793          	addi	a5,s3,4
    1adc:	00f12223          	sw	a5,4(sp)
    1ae0:	00898793          	addi	a5,s3,8
    1ae4:	00f12423          	sw	a5,8(sp)
    1ae8:	00c98793          	addi	a5,s3,12
    1aec:	00f12623          	sw	a5,12(sp)
    1af0:	00d587b3          	add	a5,a1,a3
    1af4:	00070513          	mv	a0,a4
    1af8:	013404b3          	add	s1,s0,s3
    1afc:	00f12023          	sw	a5,0(sp)
    1b00:	0015c383          	lbu	t2,1(a1)
    1b04:	0055c283          	lbu	t0,5(a1)
    1b08:	0095cf83          	lbu	t6,9(a1)
    1b0c:	00d5cf03          	lbu	t5,13(a1)
    1b10:	0005cb83          	lbu	s7,0(a1)
    1b14:	0025c703          	lbu	a4,2(a1)
    1b18:	0045cb03          	lbu	s6,4(a1)
    1b1c:	0065c783          	lbu	a5,6(a1)
    1b20:	0085ca83          	lbu	s5,8(a1)
    1b24:	00a5c883          	lbu	a7,10(a1)
    1b28:	00c5ca03          	lbu	s4,12(a1)
    1b2c:	00e5c683          	lbu	a3,14(a1)
    1b30:	00f5c803          	lbu	a6,15(a1)
    1b34:	0035ce83          	lbu	t4,3(a1)
    1b38:	0075ce03          	lbu	t3,7(a1)
    1b3c:	00b5c303          	lbu	t1,11(a1)
    1b40:	00839393          	slli	t2,t2,0x8
    1b44:	00829293          	slli	t0,t0,0x8
    1b48:	008f9f93          	slli	t6,t6,0x8
    1b4c:	008f1f13          	slli	t5,t5,0x8
    1b50:	01071713          	slli	a4,a4,0x10
    1b54:	01079793          	slli	a5,a5,0x10
    1b58:	01069693          	slli	a3,a3,0x10
    1b5c:	00042c03          	lw	s8,0(s0)
    1b60:	00442c83          	lw	s9,4(s0)
    1b64:	00842d03          	lw	s10,8(s0)
    1b68:	00c42d83          	lw	s11,12(s0)
    1b6c:	0173e3b3          	or	t2,t2,s7
    1b70:	0162e2b3          	or	t0,t0,s6
    1b74:	015fefb3          	or	t6,t6,s5
    1b78:	01089893          	slli	a7,a7,0x10
    1b7c:	014f6f33          	or	t5,t5,s4
    1b80:	0057e2b3          	or	t0,a5,t0
    1b84:	01e6ef33          	or	t5,a3,t5
    1b88:	007763b3          	or	t2,a4,t2
    1b8c:	01881693          	slli	a3,a6,0x18
    1b90:	018e9e93          	slli	t4,t4,0x18
    1b94:	018e1793          	slli	a5,t3,0x18
    1b98:	01f8e8b3          	or	a7,a7,t6
    1b9c:	01831313          	slli	t1,t1,0x18
    1ba0:	007ee733          	or	a4,t4,t2
    1ba4:	0057e7b3          	or	a5,a5,t0
    1ba8:	011368b3          	or	a7,t1,a7
    1bac:	01e6e6b3          	or	a3,a3,t5
    1bb0:	00100813          	li	a6,1
    1bb4:	01874733          	xor	a4,a4,s8
    1bb8:	0197c7b3          	xor	a5,a5,s9
    1bbc:	01a8c8b3          	xor	a7,a7,s10
    1bc0:	01b6c6b3          	xor	a3,a3,s11
    1bc4:	41287663          	bgeu	a6,s2,1fd0 <_nettle_aes_decrypt+0x54c>
    1bc8:	01040393          	addi	t2,s0,16
    1bcc:	00070a13          	mv	s4,a4
    1bd0:	00078f13          	mv	t5,a5
    1bd4:	0ffa7c93          	andi	s9,s4,255
    1bd8:	0fff7b13          	andi	s6,t5,255
    1bdc:	0ff8fd93          	andi	s11,a7,255
    1be0:	0186d293          	srli	t0,a3,0x18
    1be4:	018f5c13          	srli	s8,t5,0x18
    1be8:	0188da93          	srli	s5,a7,0x18
    1bec:	018a5f93          	srli	t6,s4,0x18
    1bf0:	040c8c93          	addi	s9,s9,64
    1bf4:	040b0b13          	addi	s6,s6,64
    1bf8:	040d8d93          	addi	s11,s11,64
    1bfc:	34028293          	addi	t0,t0,832
    1c00:	0ff6fd13          	andi	s10,a3,255
    1c04:	002d9d93          	slli	s11,s11,0x2
    1c08:	340c0c13          	addi	s8,s8,832
    1c0c:	340a8a93          	addi	s5,s5,832
    1c10:	340f8f93          	addi	t6,t6,832
    1c14:	002c9c93          	slli	s9,s9,0x2
    1c18:	002b1b13          	slli	s6,s6,0x2
    1c1c:	00229293          	slli	t0,t0,0x2
    1c20:	0108db93          	srli	s7,a7,0x10
    1c24:	008a5e13          	srli	t3,s4,0x8
    1c28:	010a5713          	srli	a4,s4,0x10
    1c2c:	01960cb3          	add	s9,a2,s9
    1c30:	01b60a33          	add	s4,a2,s11
    1c34:	01660b33          	add	s6,a2,s6
    1c38:	005602b3          	add	t0,a2,t0
    1c3c:	040d0d13          	addi	s10,s10,64
    1c40:	002c1c13          	slli	s8,s8,0x2
    1c44:	002a9a93          	slli	s5,s5,0x2
    1c48:	002f9f93          	slli	t6,t6,0x2
    1c4c:	0106d813          	srli	a6,a3,0x10
    1c50:	000cad83          	lw	s11,0(s9)
    1c54:	0086de93          	srli	t4,a3,0x8
    1c58:	000b2c83          	lw	s9,0(s6)
    1c5c:	008f5313          	srli	t1,t5,0x8
    1c60:	0002ab03          	lw	s6,0(t0)
    1c64:	0088d793          	srli	a5,a7,0x8
    1c68:	002d1d13          	slli	s10,s10,0x2
    1c6c:	01860c33          	add	s8,a2,s8
    1c70:	0ffbf693          	andi	a3,s7,255
    1c74:	01560ab3          	add	s5,a2,s5
    1c78:	000a2b83          	lw	s7,0(s4)
    1c7c:	01f60fb3          	add	t6,a2,t6
    1c80:	0ff7f893          	andi	a7,a5,255
    1c84:	0ffefe93          	andi	t4,t4,255
    1c88:	010f5793          	srli	a5,t5,0x10
    1c8c:	0ffe7e13          	andi	t3,t3,255
    1c90:	0ff87f13          	andi	t5,a6,255
    1c94:	0ff37313          	andi	t1,t1,255
    1c98:	01a60833          	add	a6,a2,s10
    1c9c:	000c2d03          	lw	s10,0(s8)
    1ca0:	000aac03          	lw	s8,0(s5)
    1ca4:	000faa83          	lw	s5,0(t6)
    1ca8:	0083af83          	lw	t6,8(t2)
    1cac:	140e8e93          	addi	t4,t4,320
    1cb0:	140e0e13          	addi	t3,t3,320
    1cb4:	14030313          	addi	t1,t1,320
    1cb8:	0ff77713          	andi	a4,a4,255
    1cbc:	14088893          	addi	a7,a7,320
    1cc0:	0ff7f793          	andi	a5,a5,255
    1cc4:	00082803          	lw	a6,0(a6)
    1cc8:	002e9e93          	slli	t4,t4,0x2
    1ccc:	24068693          	addi	a3,a3,576
    1cd0:	002e1e13          	slli	t3,t3,0x2
    1cd4:	240f0f13          	addi	t5,t5,576
    1cd8:	00231313          	slli	t1,t1,0x2
    1cdc:	24070713          	addi	a4,a4,576
    1ce0:	00289893          	slli	a7,a7,0x2
    1ce4:	24078793          	addi	a5,a5,576
    1ce8:	016bcb33          	xor	s6,s7,s6
    1cec:	0003aa03          	lw	s4,0(t2)
    1cf0:	0043a283          	lw	t0,4(t2)
    1cf4:	01fb4b33          	xor	s6,s6,t6
    1cf8:	01d60eb3          	add	t4,a2,t4
    1cfc:	00c3af83          	lw	t6,12(t2)
    1d00:	00269693          	slli	a3,a3,0x2
    1d04:	01c60e33          	add	t3,a2,t3
    1d08:	002f1f13          	slli	t5,t5,0x2
    1d0c:	00660333          	add	t1,a2,t1
    1d10:	00271713          	slli	a4,a4,0x2
    1d14:	011608b3          	add	a7,a2,a7
    1d18:	00279793          	slli	a5,a5,0x2
    1d1c:	0008a883          	lw	a7,0(a7)
    1d20:	000eae83          	lw	t4,0(t4)
    1d24:	000e2e03          	lw	t3,0(t3)
    1d28:	00032303          	lw	t1,0(t1)
    1d2c:	00d606b3          	add	a3,a2,a3
    1d30:	01e60f33          	add	t5,a2,t5
    1d34:	00e60733          	add	a4,a2,a4
    1d38:	00f607b3          	add	a5,a2,a5
    1d3c:	0006a683          	lw	a3,0(a3)
    1d40:	000f2f03          	lw	t5,0(t5)
    1d44:	00072703          	lw	a4,0(a4)
    1d48:	0007a783          	lw	a5,0(a5)
    1d4c:	01adcd33          	xor	s10,s11,s10
    1d50:	018ccc33          	xor	s8,s9,s8
    1d54:	01584833          	xor	a6,a6,s5
    1d58:	014d4a33          	xor	s4,s10,s4
    1d5c:	005c42b3          	xor	t0,s8,t0
    1d60:	01f84833          	xor	a6,a6,t6
    1d64:	01184833          	xor	a6,a6,a7
    1d68:	01da4a33          	xor	s4,s4,t4
    1d6c:	01c2ce33          	xor	t3,t0,t3
    1d70:	006b4333          	xor	t1,s6,t1
    1d74:	01038393          	addi	t2,t2,16
    1d78:	00da4a33          	xor	s4,s4,a3
    1d7c:	01ee4f33          	xor	t5,t3,t5
    1d80:	00e348b3          	xor	a7,t1,a4
    1d84:	00f846b3          	xor	a3,a6,a5
    1d88:	e49396e3          	bne	t2,s1,1bd4 <_nettle_aes_decrypt+0x150>
    1d8c:	00c12c03          	lw	s8,12(sp)
    1d90:	00812c83          	lw	s9,8(sp)
    1d94:	00412d03          	lw	s10,4(sp)
    1d98:	000a0713          	mv	a4,s4
    1d9c:	000f0793          	mv	a5,t5
    1da0:	00098d93          	mv	s11,s3
    1da4:	0187db93          	srli	s7,a5,0x18
    1da8:	0086df93          	srli	t6,a3,0x8
    1dac:	0188db13          	srli	s6,a7,0x18
    1db0:	00875f13          	srli	t5,a4,0x8
    1db4:	0186da93          	srli	s5,a3,0x18
    1db8:	0087de93          	srli	t4,a5,0x8
    1dbc:	0ff77a13          	andi	s4,a4,255
    1dc0:	0108de13          	srli	t3,a7,0x10
    1dc4:	0ff7f393          	andi	t2,a5,255
    1dc8:	0106d313          	srli	t1,a3,0x10
    1dcc:	0ff8f293          	andi	t0,a7,255
    1dd0:	01075813          	srli	a6,a4,0x10
    1dd4:	01760bb3          	add	s7,a2,s7
    1dd8:	0fffff93          	andi	t6,t6,255
    1ddc:	01660b33          	add	s6,a2,s6
    1de0:	0fff7f13          	andi	t5,t5,255
    1de4:	01560ab3          	add	s5,a2,s5
    1de8:	0ffefe93          	andi	t4,t4,255
    1dec:	01875713          	srli	a4,a4,0x18
    1df0:	0088d893          	srli	a7,a7,0x8
    1df4:	000bcb83          	lbu	s7,0(s7)
    1df8:	000b4b03          	lbu	s6,0(s6)
    1dfc:	000aca83          	lbu	s5,0(s5)
    1e00:	01460a33          	add	s4,a2,s4
    1e04:	01f60fb3          	add	t6,a2,t6
    1e08:	0ffe7e13          	andi	t3,t3,255
    1e0c:	007603b3          	add	t2,a2,t2
    1e10:	01e60f33          	add	t5,a2,t5
    1e14:	0ff37313          	andi	t1,t1,255
    1e18:	005602b3          	add	t0,a2,t0
    1e1c:	01d60eb3          	add	t4,a2,t4
    1e20:	0ff87813          	andi	a6,a6,255
    1e24:	00e60733          	add	a4,a2,a4
    1e28:	0ff6f693          	andi	a3,a3,255
    1e2c:	0ff8f893          	andi	a7,a7,255
    1e30:	0107d793          	srli	a5,a5,0x10
    1e34:	000a4a03          	lbu	s4,0(s4)
    1e38:	000fcf83          	lbu	t6,0(t6)
    1e3c:	0003c383          	lbu	t2,0(t2)
    1e40:	000f4f03          	lbu	t5,0(t5)
    1e44:	0002c283          	lbu	t0,0(t0)
    1e48:	000ece83          	lbu	t4,0(t4)
    1e4c:	00074703          	lbu	a4,0(a4)
    1e50:	01c60e33          	add	t3,a2,t3
    1e54:	00660333          	add	t1,a2,t1
    1e58:	01060833          	add	a6,a2,a6
    1e5c:	00d606b3          	add	a3,a2,a3
    1e60:	011608b3          	add	a7,a2,a7
    1e64:	0ff7f793          	andi	a5,a5,255
    1e68:	0006c683          	lbu	a3,0(a3)
    1e6c:	000e4e03          	lbu	t3,0(t3)
    1e70:	00034303          	lbu	t1,0(t1)
    1e74:	00084803          	lbu	a6,0(a6)
    1e78:	0008c883          	lbu	a7,0(a7)
    1e7c:	00f607b3          	add	a5,a2,a5
    1e80:	0007c783          	lbu	a5,0(a5)
    1e84:	018b9b93          	slli	s7,s7,0x18
    1e88:	01b40db3          	add	s11,s0,s11
    1e8c:	018b1b13          	slli	s6,s6,0x18
    1e90:	01a40d33          	add	s10,s0,s10
    1e94:	018a9a93          	slli	s5,s5,0x18
    1e98:	01940cb3          	add	s9,s0,s9
    1e9c:	000dad83          	lw	s11,0(s11)
    1ea0:	000d2d03          	lw	s10,0(s10)
    1ea4:	000cac83          	lw	s9,0(s9)
    1ea8:	008f1f13          	slli	t5,t5,0x8
    1eac:	008e9e93          	slli	t4,t4,0x8
    1eb0:	014bebb3          	or	s7,s7,s4
    1eb4:	008f9f93          	slli	t6,t6,0x8
    1eb8:	007b6b33          	or	s6,s6,t2
    1ebc:	005aeab3          	or	s5,s5,t0
    1ec0:	01871713          	slli	a4,a4,0x18
    1ec4:	01840c33          	add	s8,s0,s8
    1ec8:	000c2c03          	lw	s8,0(s8)
    1ecc:	010e1e13          	slli	t3,t3,0x10
    1ed0:	01eb6b33          	or	s6,s6,t5
    1ed4:	01031313          	slli	t1,t1,0x10
    1ed8:	01daeab3          	or	s5,s5,t4
    1edc:	01081813          	slli	a6,a6,0x10
    1ee0:	00d76733          	or	a4,a4,a3
    1ee4:	00889893          	slli	a7,a7,0x8
    1ee8:	01fbebb3          	or	s7,s7,t6
    1eec:	01176733          	or	a4,a4,a7
    1ef0:	01cbebb3          	or	s7,s7,t3
    1ef4:	006b6b33          	or	s6,s6,t1
    1ef8:	010aeab3          	or	s5,s5,a6
    1efc:	01079793          	slli	a5,a5,0x10
    1f00:	01bbcdb3          	xor	s11,s7,s11
    1f04:	01ab4d33          	xor	s10,s6,s10
    1f08:	019accb3          	xor	s9,s5,s9
    1f0c:	00f767b3          	or	a5,a4,a5
    1f10:	0187cc33          	xor	s8,a5,s8
    1f14:	018cd693          	srli	a3,s9,0x18
    1f18:	010cd713          	srli	a4,s9,0x10
    1f1c:	008cd793          	srli	a5,s9,0x8
    1f20:	018ddf13          	srli	t5,s11,0x18
    1f24:	010dde93          	srli	t4,s11,0x10
    1f28:	008dde13          	srli	t3,s11,0x8
    1f2c:	018d5313          	srli	t1,s10,0x18
    1f30:	010d5893          	srli	a7,s10,0x10
    1f34:	008d5813          	srli	a6,s10,0x8
    1f38:	00d505a3          	sb	a3,11(a0)
    1f3c:	00e50523          	sb	a4,10(a0)
    1f40:	00f504a3          	sb	a5,9(a0)
    1f44:	01e501a3          	sb	t5,3(a0)
    1f48:	01d50123          	sb	t4,2(a0)
    1f4c:	01c500a3          	sb	t3,1(a0)
    1f50:	01b50023          	sb	s11,0(a0)
    1f54:	006503a3          	sb	t1,7(a0)
    1f58:	01150323          	sb	a7,6(a0)
    1f5c:	010502a3          	sb	a6,5(a0)
    1f60:	01a50223          	sb	s10,4(a0)
    1f64:	01950423          	sb	s9,8(a0)
    1f68:	008c5793          	srli	a5,s8,0x8
    1f6c:	018c5693          	srli	a3,s8,0x18
    1f70:	00d507a3          	sb	a3,15(a0)
    1f74:	00f506a3          	sb	a5,13(a0)
    1f78:	00012783          	lw	a5,0(sp)
    1f7c:	010c5713          	srli	a4,s8,0x10
    1f80:	00e50723          	sb	a4,14(a0)
    1f84:	01850623          	sb	s8,12(a0)
    1f88:	01058593          	addi	a1,a1,16
    1f8c:	01050513          	addi	a0,a0,16
    1f90:	b6f598e3          	bne	a1,a5,1b00 <_nettle_aes_decrypt+0x7c>
    1f94:	04c12083          	lw	ra,76(sp)
    1f98:	04812403          	lw	s0,72(sp)
    1f9c:	04412483          	lw	s1,68(sp)
    1fa0:	04012903          	lw	s2,64(sp)
    1fa4:	03c12983          	lw	s3,60(sp)
    1fa8:	03812a03          	lw	s4,56(sp)
    1fac:	03412a83          	lw	s5,52(sp)
    1fb0:	03012b03          	lw	s6,48(sp)
    1fb4:	02c12b83          	lw	s7,44(sp)
    1fb8:	02812c03          	lw	s8,40(sp)
    1fbc:	02412c83          	lw	s9,36(sp)
    1fc0:	02012d03          	lw	s10,32(sp)
    1fc4:	01c12d83          	lw	s11,28(sp)
    1fc8:	05010113          	addi	sp,sp,80
    1fcc:	00008067          	ret
    1fd0:	01c00c13          	li	s8,28
    1fd4:	01800c93          	li	s9,24
    1fd8:	01400d13          	li	s10,20
    1fdc:	01000d93          	li	s11,16
    1fe0:	dc5ff06f          	j	1da4 <_nettle_aes_decrypt+0x320>
    1fe4:	00100513          	li	a0,1
    1fe8:	234000ef          	jal	ra,221c <exit>

00001fec <aes_encrypt>:
    1fec:	00f5f893          	andi	a7,a1,15
    1ff0:	02089463          	bnez	a7,2018 <aes_encrypt+0x2c>
    1ff4:	00050813          	mv	a6,a0
    1ff8:	00052503          	lw	a0,0(a0)
    1ffc:	00060713          	mv	a4,a2
    2000:	00003637          	lui	a2,0x3
    2004:	00068793          	mv	a5,a3
    2008:	73860613          	addi	a2,a2,1848 # 3738 <_aes_encrypt_table>
    200c:	00058693          	mv	a3,a1
    2010:	00480593          	addi	a1,a6,4
    2014:	d04ff06f          	j	1518 <_nettle_aes_encrypt>
    2018:	ff010113          	addi	sp,sp,-16
    201c:	00100513          	li	a0,1
    2020:	00112623          	sw	ra,12(sp)
    2024:	1f8000ef          	jal	ra,221c <exit>

00002028 <aes_decrypt>:
    2028:	00f5f893          	andi	a7,a1,15
    202c:	02089463          	bnez	a7,2054 <aes_decrypt+0x2c>
    2030:	00050813          	mv	a6,a0
    2034:	00052503          	lw	a0,0(a0)
    2038:	00060713          	mv	a4,a2
    203c:	00002637          	lui	a2,0x2
    2040:	00068793          	mv	a5,a3
    2044:	63860613          	addi	a2,a2,1592 # 2638 <_aes_decrypt_table>
    2048:	00058693          	mv	a3,a1
    204c:	00480593          	addi	a1,a6,4
    2050:	a35ff06f          	j	1a84 <_nettle_aes_decrypt>
    2054:	ff010113          	addi	sp,sp,-16
    2058:	00100513          	li	a0,1
    205c:	00112623          	sw	ra,12(sp)
    2060:	1bc000ef          	jal	ra,221c <exit>

00002064 <benchmark_body>:
    2064:	0ca05e63          	blez	a0,2140 <benchmark_body+0xdc>
    2068:	fd010113          	addi	sp,sp,-48
    206c:	01512a23          	sw	s5,20(sp)
    2070:	02812423          	sw	s0,40(sp)
    2074:	02912223          	sw	s1,36(sp)
    2078:	03212023          	sw	s2,32(sp)
    207c:	01312e23          	sw	s3,28(sp)
    2080:	01412c23          	sw	s4,24(sp)
    2084:	01612823          	sw	s6,16(sp)
    2088:	01712623          	sw	s7,12(sp)
    208c:	01812423          	sw	s8,8(sp)
    2090:	01912223          	sw	s9,4(sp)
    2094:	01a12023          	sw	s10,0(sp)
    2098:	02112623          	sw	ra,44(sp)
    209c:	00050a13          	mv	s4,a0
    20a0:	00000413          	li	s0,0
    20a4:	06c18d13          	addi	s10,gp,108 # 587c <encctx>
    20a8:	00e00b13          	li	s6,14
    20ac:	90018693          	addi	a3,gp,-1792 # 5110 <key>
    20b0:	07018613          	addi	a2,gp,112 # 5880 <encctx+0x4>
    20b4:	00800593          	li	a1,8
    20b8:	00e00513          	li	a0,14
    20bc:	016d2023          	sw	s6,0(s10)
    20c0:	8d4ff0ef          	jal	ra,1194 <_aes_set_key>
    20c4:	92018693          	addi	a3,gp,-1760 # 5130 <plaintext>
    20c8:	f6c18613          	addi	a2,gp,-148 # 577c <encrypted>
    20cc:	10000593          	li	a1,256
    20d0:	06c18513          	addi	a0,gp,108 # 587c <encctx>
    20d4:	f19ff0ef          	jal	ra,1fec <aes_encrypt>
    20d8:	90018613          	addi	a2,gp,-1792 # 5110 <key>
    20dc:	02000593          	li	a1,32
    20e0:	16018513          	addi	a0,gp,352 # 5970 <decctx>
    20e4:	c04ff0ef          	jal	ra,14e8 <aes_set_decrypt_key>
    20e8:	00140413          	addi	s0,s0,1
    20ec:	f6c18693          	addi	a3,gp,-148 # 577c <encrypted>
    20f0:	e6c18613          	addi	a2,gp,-404 # 567c <decrypted>
    20f4:	10000593          	li	a1,256
    20f8:	16018513          	addi	a0,gp,352 # 5970 <decctx>
    20fc:	f2dff0ef          	jal	ra,2028 <aes_decrypt>
    2100:	fa8a16e3          	bne	s4,s0,20ac <benchmark_body+0x48>
    2104:	02c12083          	lw	ra,44(sp)
    2108:	02812403          	lw	s0,40(sp)
    210c:	02412483          	lw	s1,36(sp)
    2110:	02012903          	lw	s2,32(sp)
    2114:	01c12983          	lw	s3,28(sp)
    2118:	01812a03          	lw	s4,24(sp)
    211c:	01412a83          	lw	s5,20(sp)
    2120:	01012b03          	lw	s6,16(sp)
    2124:	00c12b83          	lw	s7,12(sp)
    2128:	00812c03          	lw	s8,8(sp)
    212c:	00412c83          	lw	s9,4(sp)
    2130:	00012d03          	lw	s10,0(sp)
    2134:	00000513          	li	a0,0
    2138:	03010113          	addi	sp,sp,48
    213c:	00008067          	ret
    2140:	00000513          	li	a0,0
    2144:	00008067          	ret

00002148 <verify_benchmark>:
    2148:	f6c18693          	addi	a3,gp,-148 # 577c <encrypted>
    214c:	00005837          	lui	a6,0x5
    2150:	01080813          	addi	a6,a6,16 # 5010 <expected>
    2154:	92018593          	addi	a1,gp,-1760 # 5130 <plaintext>
    2158:	e6c18613          	addi	a2,gp,-404 # 567c <decrypted>
    215c:	10068e13          	addi	t3,a3,256
    2160:	00100513          	li	a0,1
    2164:	0006c703          	lbu	a4,0(a3)
    2168:	00084303          	lbu	t1,0(a6)
    216c:	0005c783          	lbu	a5,0(a1)
    2170:	00064883          	lbu	a7,0(a2)
    2174:	40670733          	sub	a4,a4,t1
    2178:	00173713          	seqz	a4,a4
    217c:	411787b3          	sub	a5,a5,a7
    2180:	40e00733          	neg	a4,a4
    2184:	0017b793          	seqz	a5,a5
    2188:	00e57533          	and	a0,a0,a4
    218c:	40f007b3          	neg	a5,a5
    2190:	00168693          	addi	a3,a3,1
    2194:	00f57533          	and	a0,a0,a5
    2198:	00180813          	addi	a6,a6,1
    219c:	00158593          	addi	a1,a1,1
    21a0:	00160613          	addi	a2,a2,1
    21a4:	fdc690e3          	bne	a3,t3,2164 <verify_benchmark+0x1c>
    21a8:	00008067          	ret

000021ac <initialise_benchmark>:
    21ac:	00008067          	ret

000021b0 <warm_caches>:
    21b0:	eb5ff06f          	j	2064 <benchmark_body>

000021b4 <benchmark>:
    21b4:	00100513          	li	a0,1
    21b8:	eadff06f          	j	2064 <benchmark_body>

000021bc <initialise_board>:
    21bc:	00000513          	li	a0,0
    21c0:	00008067          	ret

000021c4 <start_trigger>:
    21c4:	00000513          	li	a0,0
    21c8:	c0001ff3          	csrrw	t6,cycle,zero
    21cc:	00101eb7          	lui	t4,0x101
    21d0:	010e8e93          	addi	t4,t4,16 # 101010 <__BSS_END__+0xfb5ac>
    21d4:	00000f13          	li	t5,0
    21d8:	00000e93          	li	t4,0
    21dc:	00000f13          	li	t5,0
    21e0:	00008067          	ret

000021e4 <stop_trigger>:
    21e4:	00000513          	li	a0,0
    21e8:	c0001ff3          	csrrw	t6,cycle,zero
    21ec:	00101eb7          	lui	t4,0x101
    21f0:	010e8e93          	addi	t4,t4,16 # 101010 <__BSS_END__+0xfb5ac>
    21f4:	00100f13          	li	t5,1
    21f8:	00000e93          	li	t4,0
    21fc:	00000f13          	li	t5,0
    2200:	00008067          	ret

00002204 <verify_trigger>:
    2204:	00101eb7          	lui	t4,0x101
    2208:	010e8e93          	addi	t4,t4,16 # 101010 <__BSS_END__+0xfb5ac>
    220c:	00200f13          	li	t5,2
    2210:	00000e93          	li	t4,0
    2214:	00000f13          	li	t5,0
    2218:	00008067          	ret

0000221c <exit>:
    221c:	ff010113          	addi	sp,sp,-16
    2220:	00000593          	li	a1,0
    2224:	00812423          	sw	s0,8(sp)
    2228:	00112623          	sw	ra,12(sp)
    222c:	00050413          	mv	s0,a0
    2230:	194000ef          	jal	ra,23c4 <__call_exitprocs>
    2234:	e481a503          	lw	a0,-440(gp) # 5658 <_global_impure_ptr>
    2238:	03c52783          	lw	a5,60(a0)
    223c:	00078463          	beqz	a5,2244 <exit+0x28>
    2240:	000780e7          	jalr	a5
    2244:	00040513          	mv	a0,s0
    2248:	3a4000ef          	jal	ra,25ec <_exit>

0000224c <__libc_init_array>:
    224c:	ff010113          	addi	sp,sp,-16
    2250:	00812423          	sw	s0,8(sp)
    2254:	01212023          	sw	s2,0(sp)
    2258:	00005437          	lui	s0,0x5
    225c:	00005937          	lui	s2,0x5
    2260:	00440793          	addi	a5,s0,4 # 5004 <__init_array_start>
    2264:	00490913          	addi	s2,s2,4 # 5004 <__init_array_start>
    2268:	40f90933          	sub	s2,s2,a5
    226c:	00112623          	sw	ra,12(sp)
    2270:	00912223          	sw	s1,4(sp)
    2274:	40295913          	srai	s2,s2,0x2
    2278:	02090063          	beqz	s2,2298 <__libc_init_array+0x4c>
    227c:	00440413          	addi	s0,s0,4
    2280:	00000493          	li	s1,0
    2284:	00042783          	lw	a5,0(s0)
    2288:	00148493          	addi	s1,s1,1
    228c:	00440413          	addi	s0,s0,4
    2290:	000780e7          	jalr	a5
    2294:	fe9918e3          	bne	s2,s1,2284 <__libc_init_array+0x38>
    2298:	00005437          	lui	s0,0x5
    229c:	00005937          	lui	s2,0x5
    22a0:	00440793          	addi	a5,s0,4 # 5004 <__init_array_start>
    22a4:	00c90913          	addi	s2,s2,12 # 500c <__do_global_dtors_aux_fini_array_entry>
    22a8:	40f90933          	sub	s2,s2,a5
    22ac:	40295913          	srai	s2,s2,0x2
    22b0:	02090063          	beqz	s2,22d0 <__libc_init_array+0x84>
    22b4:	00440413          	addi	s0,s0,4
    22b8:	00000493          	li	s1,0
    22bc:	00042783          	lw	a5,0(s0)
    22c0:	00148493          	addi	s1,s1,1
    22c4:	00440413          	addi	s0,s0,4
    22c8:	000780e7          	jalr	a5
    22cc:	fe9918e3          	bne	s2,s1,22bc <__libc_init_array+0x70>
    22d0:	00c12083          	lw	ra,12(sp)
    22d4:	00812403          	lw	s0,8(sp)
    22d8:	00412483          	lw	s1,4(sp)
    22dc:	00012903          	lw	s2,0(sp)
    22e0:	01010113          	addi	sp,sp,16
    22e4:	00008067          	ret

000022e8 <memset>:
    22e8:	00f00313          	li	t1,15
    22ec:	00050713          	mv	a4,a0
    22f0:	02c37e63          	bgeu	t1,a2,232c <memset+0x44>
    22f4:	00f77793          	andi	a5,a4,15
    22f8:	0a079063          	bnez	a5,2398 <memset+0xb0>
    22fc:	08059263          	bnez	a1,2380 <memset+0x98>
    2300:	ff067693          	andi	a3,a2,-16
    2304:	00f67613          	andi	a2,a2,15
    2308:	00e686b3          	add	a3,a3,a4
    230c:	00b72023          	sw	a1,0(a4)
    2310:	00b72223          	sw	a1,4(a4)
    2314:	00b72423          	sw	a1,8(a4)
    2318:	00b72623          	sw	a1,12(a4)
    231c:	01070713          	addi	a4,a4,16
    2320:	fed766e3          	bltu	a4,a3,230c <memset+0x24>
    2324:	00061463          	bnez	a2,232c <memset+0x44>
    2328:	00008067          	ret
    232c:	40c306b3          	sub	a3,t1,a2
    2330:	00269693          	slli	a3,a3,0x2
    2334:	00000297          	auipc	t0,0x0
    2338:	005686b3          	add	a3,a3,t0
    233c:	00c68067          	jr	12(a3)
    2340:	00b70723          	sb	a1,14(a4)
    2344:	00b706a3          	sb	a1,13(a4)
    2348:	00b70623          	sb	a1,12(a4)
    234c:	00b705a3          	sb	a1,11(a4)
    2350:	00b70523          	sb	a1,10(a4)
    2354:	00b704a3          	sb	a1,9(a4)
    2358:	00b70423          	sb	a1,8(a4)
    235c:	00b703a3          	sb	a1,7(a4)
    2360:	00b70323          	sb	a1,6(a4)
    2364:	00b702a3          	sb	a1,5(a4)
    2368:	00b70223          	sb	a1,4(a4)
    236c:	00b701a3          	sb	a1,3(a4)
    2370:	00b70123          	sb	a1,2(a4)
    2374:	00b700a3          	sb	a1,1(a4)
    2378:	00b70023          	sb	a1,0(a4)
    237c:	00008067          	ret
    2380:	0ff5f593          	andi	a1,a1,255
    2384:	00859693          	slli	a3,a1,0x8
    2388:	00d5e5b3          	or	a1,a1,a3
    238c:	01059693          	slli	a3,a1,0x10
    2390:	00d5e5b3          	or	a1,a1,a3
    2394:	f6dff06f          	j	2300 <memset+0x18>
    2398:	00279693          	slli	a3,a5,0x2
    239c:	00000297          	auipc	t0,0x0
    23a0:	005686b3          	add	a3,a3,t0
    23a4:	00008293          	mv	t0,ra
    23a8:	fa0680e7          	jalr	-96(a3)
    23ac:	00028093          	mv	ra,t0
    23b0:	ff078793          	addi	a5,a5,-16
    23b4:	40f70733          	sub	a4,a4,a5
    23b8:	00f60633          	add	a2,a2,a5
    23bc:	f6c378e3          	bgeu	t1,a2,232c <memset+0x44>
    23c0:	f3dff06f          	j	22fc <memset+0x14>

000023c4 <__call_exitprocs>:
    23c4:	fd010113          	addi	sp,sp,-48
    23c8:	01412c23          	sw	s4,24(sp)
    23cc:	e481aa03          	lw	s4,-440(gp) # 5658 <_global_impure_ptr>
    23d0:	03212023          	sw	s2,32(sp)
    23d4:	02112623          	sw	ra,44(sp)
    23d8:	148a2903          	lw	s2,328(s4)
    23dc:	02812423          	sw	s0,40(sp)
    23e0:	02912223          	sw	s1,36(sp)
    23e4:	01312e23          	sw	s3,28(sp)
    23e8:	01512a23          	sw	s5,20(sp)
    23ec:	01612823          	sw	s6,16(sp)
    23f0:	01712623          	sw	s7,12(sp)
    23f4:	01812423          	sw	s8,8(sp)
    23f8:	04090063          	beqz	s2,2438 <__call_exitprocs+0x74>
    23fc:	00050b13          	mv	s6,a0
    2400:	00058b93          	mv	s7,a1
    2404:	00100a93          	li	s5,1
    2408:	fff00993          	li	s3,-1
    240c:	00492483          	lw	s1,4(s2)
    2410:	fff48413          	addi	s0,s1,-1
    2414:	02044263          	bltz	s0,2438 <__call_exitprocs+0x74>
    2418:	00249493          	slli	s1,s1,0x2
    241c:	009904b3          	add	s1,s2,s1
    2420:	040b8463          	beqz	s7,2468 <__call_exitprocs+0xa4>
    2424:	1044a783          	lw	a5,260(s1)
    2428:	05778063          	beq	a5,s7,2468 <__call_exitprocs+0xa4>
    242c:	fff40413          	addi	s0,s0,-1
    2430:	ffc48493          	addi	s1,s1,-4
    2434:	ff3416e3          	bne	s0,s3,2420 <__call_exitprocs+0x5c>
    2438:	02c12083          	lw	ra,44(sp)
    243c:	02812403          	lw	s0,40(sp)
    2440:	02412483          	lw	s1,36(sp)
    2444:	02012903          	lw	s2,32(sp)
    2448:	01c12983          	lw	s3,28(sp)
    244c:	01812a03          	lw	s4,24(sp)
    2450:	01412a83          	lw	s5,20(sp)
    2454:	01012b03          	lw	s6,16(sp)
    2458:	00c12b83          	lw	s7,12(sp)
    245c:	00812c03          	lw	s8,8(sp)
    2460:	03010113          	addi	sp,sp,48
    2464:	00008067          	ret
    2468:	00492783          	lw	a5,4(s2)
    246c:	0044a683          	lw	a3,4(s1)
    2470:	fff78793          	addi	a5,a5,-1
    2474:	04878e63          	beq	a5,s0,24d0 <__call_exitprocs+0x10c>
    2478:	0004a223          	sw	zero,4(s1)
    247c:	fa0688e3          	beqz	a3,242c <__call_exitprocs+0x68>
    2480:	18892783          	lw	a5,392(s2)
    2484:	008a9733          	sll	a4,s5,s0
    2488:	00492c03          	lw	s8,4(s2)
    248c:	00f777b3          	and	a5,a4,a5
    2490:	02079263          	bnez	a5,24b4 <__call_exitprocs+0xf0>
    2494:	000680e7          	jalr	a3
    2498:	00492703          	lw	a4,4(s2)
    249c:	148a2783          	lw	a5,328(s4)
    24a0:	01871463          	bne	a4,s8,24a8 <__call_exitprocs+0xe4>
    24a4:	f8f904e3          	beq	s2,a5,242c <__call_exitprocs+0x68>
    24a8:	f80788e3          	beqz	a5,2438 <__call_exitprocs+0x74>
    24ac:	00078913          	mv	s2,a5
    24b0:	f5dff06f          	j	240c <__call_exitprocs+0x48>
    24b4:	18c92783          	lw	a5,396(s2)
    24b8:	0844a583          	lw	a1,132(s1)
    24bc:	00f77733          	and	a4,a4,a5
    24c0:	00071c63          	bnez	a4,24d8 <__call_exitprocs+0x114>
    24c4:	000b0513          	mv	a0,s6
    24c8:	000680e7          	jalr	a3
    24cc:	fcdff06f          	j	2498 <__call_exitprocs+0xd4>
    24d0:	00892223          	sw	s0,4(s2)
    24d4:	fa9ff06f          	j	247c <__call_exitprocs+0xb8>
    24d8:	00058513          	mv	a0,a1
    24dc:	000680e7          	jalr	a3
    24e0:	fb9ff06f          	j	2498 <__call_exitprocs+0xd4>

000024e4 <__libc_fini_array>:
    24e4:	ff010113          	addi	sp,sp,-16
    24e8:	00812423          	sw	s0,8(sp)
    24ec:	000057b7          	lui	a5,0x5
    24f0:	00005437          	lui	s0,0x5
    24f4:	00c40413          	addi	s0,s0,12 # 500c <__do_global_dtors_aux_fini_array_entry>
    24f8:	01078793          	addi	a5,a5,16 # 5010 <expected>
    24fc:	408787b3          	sub	a5,a5,s0
    2500:	00912223          	sw	s1,4(sp)
    2504:	00112623          	sw	ra,12(sp)
    2508:	4027d493          	srai	s1,a5,0x2
    250c:	02048063          	beqz	s1,252c <__libc_fini_array+0x48>
    2510:	ffc78793          	addi	a5,a5,-4
    2514:	00878433          	add	s0,a5,s0
    2518:	00042783          	lw	a5,0(s0)
    251c:	fff48493          	addi	s1,s1,-1
    2520:	ffc40413          	addi	s0,s0,-4
    2524:	000780e7          	jalr	a5
    2528:	fe0498e3          	bnez	s1,2518 <__libc_fini_array+0x34>
    252c:	00c12083          	lw	ra,12(sp)
    2530:	00812403          	lw	s0,8(sp)
    2534:	00412483          	lw	s1,4(sp)
    2538:	01010113          	addi	sp,sp,16
    253c:	00008067          	ret

00002540 <atexit>:
    2540:	00050593          	mv	a1,a0
    2544:	00000693          	li	a3,0
    2548:	00000613          	li	a2,0
    254c:	00000513          	li	a0,0
    2550:	0040006f          	j	2554 <__register_exitproc>

00002554 <__register_exitproc>:
    2554:	e481a703          	lw	a4,-440(gp) # 5658 <_global_impure_ptr>
    2558:	14872783          	lw	a5,328(a4)
    255c:	04078c63          	beqz	a5,25b4 <__register_exitproc+0x60>
    2560:	0047a703          	lw	a4,4(a5)
    2564:	01f00813          	li	a6,31
    2568:	06e84e63          	blt	a6,a4,25e4 <__register_exitproc+0x90>
    256c:	00271813          	slli	a6,a4,0x2
    2570:	02050663          	beqz	a0,259c <__register_exitproc+0x48>
    2574:	01078333          	add	t1,a5,a6
    2578:	08c32423          	sw	a2,136(t1)
    257c:	1887a883          	lw	a7,392(a5)
    2580:	00100613          	li	a2,1
    2584:	00e61633          	sll	a2,a2,a4
    2588:	00c8e8b3          	or	a7,a7,a2
    258c:	1917a423          	sw	a7,392(a5)
    2590:	10d32423          	sw	a3,264(t1)
    2594:	00200693          	li	a3,2
    2598:	02d50463          	beq	a0,a3,25c0 <__register_exitproc+0x6c>
    259c:	00170713          	addi	a4,a4,1
    25a0:	00e7a223          	sw	a4,4(a5)
    25a4:	010787b3          	add	a5,a5,a6
    25a8:	00b7a423          	sw	a1,8(a5)
    25ac:	00000513          	li	a0,0
    25b0:	00008067          	ret
    25b4:	14c70793          	addi	a5,a4,332
    25b8:	14f72423          	sw	a5,328(a4)
    25bc:	fa5ff06f          	j	2560 <__register_exitproc+0xc>
    25c0:	18c7a683          	lw	a3,396(a5)
    25c4:	00170713          	addi	a4,a4,1
    25c8:	00e7a223          	sw	a4,4(a5)
    25cc:	00c6e633          	or	a2,a3,a2
    25d0:	18c7a623          	sw	a2,396(a5)
    25d4:	010787b3          	add	a5,a5,a6
    25d8:	00b7a423          	sw	a1,8(a5)
    25dc:	00000513          	li	a0,0
    25e0:	00008067          	ret
    25e4:	fff00513          	li	a0,-1
    25e8:	00008067          	ret

000025ec <_exit>:
    25ec:	00000593          	li	a1,0
    25f0:	00000613          	li	a2,0
    25f4:	00000693          	li	a3,0
    25f8:	00000713          	li	a4,0
    25fc:	00000793          	li	a5,0
    2600:	05d00893          	li	a7,93
    2604:	00000073          	ecall
    2608:	00054463          	bltz	a0,2610 <_exit+0x24>
    260c:	0000006f          	j	260c <_exit+0x20>
    2610:	ff010113          	addi	sp,sp,-16
    2614:	00812423          	sw	s0,8(sp)
    2618:	00050413          	mv	s0,a0
    261c:	00112623          	sw	ra,12(sp)
    2620:	40800433          	neg	s0,s0
    2624:	00c000ef          	jal	ra,2630 <__errno>
    2628:	00852023          	sw	s0,0(a0)
    262c:	0000006f          	j	262c <_exit+0x40>

00002630 <__errno>:
    2630:	e4c1a503          	lw	a0,-436(gp) # 565c <_impure_ptr>
    2634:	00008067          	ret

Disassembly of section .rodata:

00002638 <_aes_decrypt_table>:
    2638:	0952                	slli	s2,s2,0x14
    263a:	d56a                	sw	s10,168(sp)
    263c:	3630                	fld	fa2,104(a2)
    263e:	38a5                	jal	1eb6 <_nettle_aes_decrypt+0x432>
    2640:	9ea340bf fbd7f381 	0xfbd7f3819ea340bf
    2648:	e37c                	fsw	fa5,68(a4)
    264a:	8239                	srli	a2,a2,0xe
    264c:	87ff2f9b          	0x87ff2f9b
    2650:	8e34                	0x8e34
    2652:	dec44443          	fmadd.q	fs0,fs0,fa2,fs11,rmm
    2656:	cbe9                	beqz	a5,2728 <_aes_decrypt_table+0xf0>
    2658:	7b54                	flw	fa3,52(a4)
    265a:	3294                	fld	fa3,32(a3)
    265c:	c2a6                	sw	s1,68(sp)
    265e:	4cee3d23          	0x4cee3d23
    2662:	0b95                	addi	s7,s7,5
    2664:	fa42                	fsw	fa6,52(sp)
    2666:	2e084ec3          	fmadd.q	ft9,fa6,ft0,ft5,rmm
    266a:	66a1                	lui	a3,0x8
    266c:	d928                	sw	a0,112(a0)
    266e:	b224                	fsd	fs1,96(a2)
    2670:	5b76                	lw	s6,124(sp)
    2672:	49a2                	lw	s3,8(sp)
    2674:	8b6d                	andi	a4,a4,27
    2676:	25d1                	jal	2d3a <_aes_decrypt_table+0x702>
    2678:	f872                	fsw	ft8,48(sp)
    267a:	64f6                	flw	fs1,92(sp)
    267c:	6886                	flw	fa7,64(sp)
    267e:	1698                	addi	a4,sp,864
    2680:	a4d4                	fsd	fa3,136(s1)
    2682:	cc5c                	sw	a5,28(s0)
    2684:	655d                	lui	a0,0x17
    2686:	92b6                	add	t0,t0,a3
    2688:	706c                	flw	fa1,100(s0)
    268a:	5048                	lw	a0,36(s0)
    268c:	edfd                	bnez	a1,278a <_aes_decrypt_table+0x152>
    268e:	dab9                	beqz	a3,25e4 <__register_exitproc+0x90>
    2690:	155e                	slli	a0,a0,0x37
    2692:	5746                	lw	a4,112(sp)
    2694:	849d8da7          	0x849d8da7
    2698:	d890                	sw	a2,48(s1)
    269a:	bc8c00ab          	0xbc8c00ab
    269e:	e4f70ad3          	0xe4f70ad3
    26a2:	0558                	addi	a4,sp,644
    26a4:	b3b8                	fsd	fa4,96(a5)
    26a6:	0645                	addi	a2,a2,17
    26a8:	2cd0                	fld	fa2,152(s1)
    26aa:	8f1e                	mv	t5,t2
    26ac:	3fca                	fld	ft11,176(sp)
    26ae:	afc1020f          	0xafc1020f
    26b2:	03bd                	addi	t2,t2,15
    26b4:	1301                	addi	t1,t1,-32
    26b6:	6b8a                	flw	fs7,128(sp)
    26b8:	913a                	add	sp,sp,a4
    26ba:	4111                	li	sp,4
    26bc:	eadc674f          	fnmadd.d	fa4,fs8,fa3,ft9,unknown
    26c0:	cecff297          	auipc	t0,0xcecff
    26c4:	b4f0                	fsd	fa2,232(s1)
    26c6:	73e6                	flw	ft7,120(sp)
    26c8:	ac96                	fsd	ft5,88(sp)
    26ca:	2274                	fld	fa3,192(a2)
    26cc:	8535ade7          	0x8535ade7
    26d0:	f9e2                	fsw	fs8,240(sp)
    26d2:	751ce837          	lui	a6,0x751ce
    26d6:	6edf f147 711a      	0x711af1476edf
    26dc:	291d                	jal	2b12 <_aes_decrypt_table+0x4da>
    26de:	89c5                	andi	a1,a1,17
    26e0:	0e62b76f          	jal	a4,2d7c6 <__BSS_END__+0x27d62>
    26e4:	18aa                	slli	a7,a7,0x2a
    26e6:	1bbe                	slli	s7,s7,0x2f
    26e8:	56fc                	lw	a5,108(a3)
    26ea:	4b3e                	lw	s6,204(sp)
    26ec:	d2c6                	sw	a7,100(sp)
    26ee:	2079                	jal	277c <_aes_decrypt_table+0x144>
    26f0:	db9a                	sw	t1,244(sp)
    26f2:	fec0                	fsw	fs0,60(a3)
    26f4:	cd78                	sw	a4,92(a0)
    26f6:	f45a                	fsw	fs6,40(sp)
    26f8:	dd1f 33a8 0788      	0x78833a8dd1f
    26fe:	12b131c7          	fmsub.d	ft3,ft2,fa1,ft2,rup
    2702:	5910                	lw	a2,48(a0)
    2704:	5fec8027          	0x5fec8027
    2708:	5160                	lw	s0,100(a0)
    270a:	a97f                	0xa97f
    270c:	b519                	j	2512 <__libc_fini_array+0x2e>
    270e:	0d4a                	slli	s10,s10,0x12
    2710:	e52d                	bnez	a0,277a <_aes_decrypt_table+0x142>
    2712:	9f7a                	add	t5,t5,t5
    2714:	ef9cc993          	xori	s3,s9,-263
    2718:	e0a0                	fsw	fs0,64(s1)
    271a:	2aae4d3b          	0x2aae4d3b
    271e:	b0f5                	j	200a <aes_encrypt+0x1e>
    2720:	ebc8                	fsw	fa0,20(a5)
    2722:	53833cbb          	0x53833cbb
    2726:	6199                	lui	gp,0x6
    2728:	7e042b17          	auipc	s6,0x7e042
    272c:	77ba                	flw	fa5,172(sp)
    272e:	26d6                	fld	fa3,336(sp)
    2730:	69e1                	lui	s3,0x18
    2732:	6314                	flw	fa3,0(a4)
    2734:	2155                	jal	2bd8 <_aes_decrypt_table+0x5a0>
    2736:	7d0c                	flw	fa1,56(a0)
    2738:	f451                	bnez	s0,26c4 <_aes_decrypt_table+0x8c>
    273a:	417e50a7          	0x417e50a7
    273e:	5365                	li	t1,-7
    2740:	171a                	slli	a4,a4,0x26
    2742:	c3a4                	sw	s1,64(a5)
    2744:	273a                	fld	fa4,392(sp)
    2746:	965e                	add	a2,a2,s7
    2748:	cb6bab3b          	0xcb6bab3b
    274c:	9d1f f145 faac      	0xfaacf1459d1f
    2752:	ab58                	fsd	fa4,144(a4)
    2754:	9303e34b          	fnmsub.d	ft6,ft7,fa6,fs2,unknown
    2758:	3020                	fld	fs0,96(s0)
    275a:	55fa                	lw	a1,188(sp)
    275c:	76ad                	lui	a3,0xfffeb
    275e:	f66d                	bnez	a2,2748 <_aes_decrypt_table+0x110>
    2760:	cc88                	sw	a0,24(s1)
    2762:	9176                	add	sp,sp,t4
    2764:	02f5                	addi	t0,t0,29
    2766:	254c                	fld	fa1,136(a0)
    2768:	fcd7e54f          	0xfcd7e54f
    276c:	2ac5                	jal	295c <_aes_decrypt_table+0x324>
    276e:	3526d7cb          	0x3526d7cb
    2772:	8044                	0x8044
    2774:	62b5                	lui	t0,0xd
    2776:	b1de8fa3          	sb	t4,-1249(t4)
    277a:	495a                	lw	s2,148(sp)
    277c:	ba25                	j	20b4 <benchmark_body+0x50>
    277e:	ea45671b          	0xea45671b
    2782:	980e                	add	a6,a6,gp
    2784:	fe5d                	bnez	a2,2742 <_aes_decrypt_table+0x10a>
    2786:	e1c0                	fsw	fs0,4(a1)
    2788:	02752fc3          	fmadd.d	ft11,fa0,ft7,ft0,rdn
    278c:	4c81                	li	s9,0
    278e:	12f0                	addi	a2,sp,364
    2790:	468d                	li	a3,3
    2792:	d36ba397          	auipc	t2,0xd36ba
    2796:	c6f9                	beqz	a3,2864 <_aes_decrypt_table+0x22c>
    2798:	e75f8f03          	lb	t5,-395(t6)
    279c:	9215                	srli	a2,a2,0x25
    279e:	959c                	0x959c
    27a0:	eb7a6dbf da595295 	0xda595295eb7a6dbf
    27a8:	bed4                	fsd	fa3,184(a3)
    27aa:	74582d83          	lw	s11,1861(a6) # 751ce745 <__BSS_END__+0x751c8ce1>
    27ae:	d321                	beqz	a4,26ee <_aes_decrypt_table+0xb6>
    27b0:	e049                	bnez	s0,2832 <_aes_decrypt_table+0x1fa>
    27b2:	2969                	jal	2c4c <_aes_decrypt_table+0x614>
    27b4:	c98e                	sw	gp,208(sp)
    27b6:	44c8                	lw	a0,12(s1)
    27b8:	c275                	beqz	a2,289c <_aes_decrypt_table+0x264>
    27ba:	6a89                	lui	s5,0x2
    27bc:	8ef4                	0x8ef4
    27be:	7879                	lui	a6,0xffffe
    27c0:	5899                	li	a7,-26
    27c2:	6b3e                	flw	fs6,204(sp)
    27c4:	dd71b927          	fsd	fs7,-558(gp) # 5dd2 <__BSS_END__+0x36e>
    27c8:	e1be                	fsw	fa5,192(sp)
    27ca:	88f0b64f          	fnmadd.s	fa2,ft1,fa5,fa7,rup
    27ce:	17ad                	addi	a5,a5,-21
    27d0:	20c9                	jal	2892 <_aes_decrypt_table+0x25a>
    27d2:	66ac                	flw	fa1,72(a3)
    27d4:	ce7d                	beqz	a2,28d2 <_aes_decrypt_table+0x29a>
    27d6:	b43a                	fsd	fa4,40(sp)
    27d8:	184adf63          	bge	s5,tp,2976 <_aes_decrypt_table+0x33e>
    27dc:	1ae5                	addi	s5,s5,-7
    27de:	8231                	srli	a2,a2,0xc
    27e0:	60335197          	auipc	gp,0x60335
    27e4:	5362                	lw	t1,56(sp)
    27e6:	457f                	0x457f
    27e8:	64b1                	lui	s1,0xc
    27ea:	6bbbe077          	0x6bbbe077
    27ee:	84ae                	mv	s1,a1
    27f0:	81fe                	mv	gp,t6
    27f2:	1ca0                	addi	s0,sp,632
    27f4:	08f9                	addi	a7,a7,30
    27f6:	4870942b          	0x4870942b
    27fa:	5868                	lw	a0,116(s0)
    27fc:	19fd458f          	0x19fd458f
    2800:	de94                	sw	a3,56(a3)
    2802:	876c                	0x876c
    2804:	7b52                	flw	fs6,52(sp)
    2806:	b7f8                	fsd	fa4,232(a5)
    2808:	23d373ab          	0x23d373ab
    280c:	4b72                	lw	s6,28(sp)
    280e:	e202                	fsw	ft0,4(sp)
    2810:	578f1fe3          	bne	t5,s8,358e <_aes_decrypt_table+0xf56>
    2814:	5566                	lw	a0,120(sp)
    2816:	ebb22aab          	0xebb22aab
    281a:	0728                	addi	a0,sp,904
    281c:	03c2b52f          	0x3c2b52f
    2820:	c586                	sw	ra,200(sp)
    2822:	37d39a7b          	0x37d39a7b
    2826:	a508                	fsd	fa0,8(a0)
    2828:	2830                	fld	fa2,80(s0)
    282a:	bf23f287          	0xbf23f287
    282e:	b2a5                	j	2196 <verify_benchmark+0x4e>
    2830:	0302                	c.slli64	t1
    2832:	ba6a                	fsd	fs10,304(sp)
    2834:	16ed                	addi	a3,a3,-5
    2836:	5c82                	lw	s9,32(sp)
    2838:	cf8a                	sw	sp,220(sp)
    283a:	2b1c                	fld	fa5,16(a4)
    283c:	92b479a7          	0x92b479a7
    2840:	f0f207f3          	0xf0f207f3
    2844:	694e                	flw	fs2,208(sp)
    2846:	a1e2                	fsd	fs8,192(sp)
    2848:	da65                	beqz	a2,2838 <_aes_decrypt_table+0x200>
    284a:	cdf4                	sw	a3,92(a1)
    284c:	0506                	slli	a0,a0,0x1
    284e:	d5be                	sw	a5,232(sp)
    2850:	34d1                	jal	2314 <memset+0x2c>
    2852:	1f62                	slli	t5,t5,0x38
    2854:	a6c4                	fsd	fs1,136(a3)
    2856:	8afe                	mv	s5,t6
    2858:	2e34                	fld	fa3,88(a2)
    285a:	f3a29d53          	0xf3a29d53
    285e:	a055                	j	2902 <_aes_decrypt_table+0x2ca>
    2860:	8a05                	andi	a2,a2,1
    2862:	32e1                	jal	222a <exit+0xe>
    2864:	f6a4                	fsw	fs1,104(a3)
    2866:	830b75eb          	0x830b75eb
    286a:	39ec                	fld	fa1,240(a1)
    286c:	6040                	flw	fs0,4(s0)
    286e:	715eaaef          	jal	s5,ed782 <__BSS_END__+0xe7d1e>
    2872:	069f 6ebd 5110      	0x51106ebd069f
    2878:	213e                	fld	ft2,456(sp)
    287a:	f98a                	fsw	ft2,240(sp)
    287c:	dd96                	sw	t0,248(sp)
    287e:	3d06                	fld	fs10,96(sp)
    2880:	3edd                	jal	2476 <__call_exitprocs+0xb2>
    2882:	ae05                	j	2bb2 <_aes_decrypt_table+0x57a>
    2884:	e64d                	bnez	a2,292e <_aes_decrypt_table+0x2f6>
    2886:	46bd                	li	a3,15
    2888:	5491                	li	s1,-28
    288a:	b58d                	j	26ec <_aes_decrypt_table+0xb4>
    288c:	c471                	beqz	s0,2958 <_aes_decrypt_table+0x320>
    288e:	055d                	addi	a0,a0,23
    2890:	0604                	addi	s1,sp,768
    2892:	6fd4                	flw	fa3,28(a5)
    2894:	5060                	lw	s0,100(s0)
    2896:	ff15                	bnez	a4,27d2 <_aes_decrypt_table+0x19a>
    2898:	9819                	andi	s0,s0,-26
    289a:	bdd624fb          	0xbdd624fb
    289e:	97e9                	srai	a5,a5,0x3a
    28a0:	4089                	li	ra,2
    28a2:	d967cc43          	fmadd.s	fs8,fa5,fs6,fs11,rmm
    28a6:	779e                	flw	fa5,228(sp)
    28a8:	e8b0                	fsw	fa2,80(s1)
    28aa:	bd42                	fsd	fa6,184(sp)
    28ac:	888b8907          	0x888b8907
    28b0:	385b19e7          	0x385b19e7
    28b4:	c879                	beqz	s0,298a <_aes_decrypt_table+0x352>
    28b6:	dbee                	sw	s11,244(sp)
    28b8:	7ca1                	lui	s9,0xfffe8
    28ba:	470a                	lw	a4,128(sp)
    28bc:	427c                	lw	a5,68(a2)
    28be:	84f8e90f          	0x84f8e90f
    28c2:	c91e                	sw	t2,144(sp)
    28c4:	0000                	unimp
    28c6:	0000                	unimp
    28c8:	8009                	srli	s0,s0,0x2
    28ca:	8386                	mv	t2,ra
    28cc:	2b32                	fld	fs6,264(sp)
    28ce:	48ed                	li	a7,27
    28d0:	111e                	slli	sp,sp,0x27
    28d2:	ac70                	fsd	fa2,216(s0)
    28d4:	5a6c                	lw	a1,116(a2)
    28d6:	4e72                	lw	t3,28(sp)
    28d8:	0efd                	addi	t4,t4,31
    28da:	fbff                	0xfbff
    28dc:	5638850f          	0x5638850f
    28e0:	ae3d                	j	2c1e <_aes_decrypt_table+0x5e6>
    28e2:	1ed5                	addi	t4,t4,-11
    28e4:	2d36                	fld	fs10,328(sp)
    28e6:	2739                	jal	2ff4 <_aes_decrypt_table+0x9bc>
    28e8:	0f0a                	slli	t5,t5,0x2
    28ea:	64d9                	lui	s1,0x16
    28ec:	5c68                	lw	a0,124(s0)
    28ee:	21a6                	fld	ft3,72(sp)
    28f0:	d1545b9b          	0xd1545b9b
    28f4:	3624                	fld	fs1,104(a2)
    28f6:	3a2e                	fld	fs4,232(sp)
    28f8:	0a0c                	addi	a1,sp,272
    28fa:	5793b167          	0x5793b167
    28fe:	eeb40fe7          	jalr	t6,-277(s0)
    2902:	d296                	sw	t0,100(sp)
    2904:	9e919b1b          	0x9e919b1b
    2908:	c080                	sw	s0,0(s1)
    290a:	4fc5                	li	t6,17
    290c:	dc61                	beqz	s0,28e4 <_aes_decrypt_table+0x2ac>
    290e:	a220                	fsd	fs0,64(a2)
    2910:	775a                	flw	fa4,180(sp)
    2912:	121c694b          	fnmsub.d	fs2,fs8,ft1,ft2,unknown
    2916:	161a                	slli	a2,a2,0x26
    2918:	93e2                	add	t2,t2,s8
    291a:	0aba                	slli	s5,s5,0xe
    291c:	a0c0                	fsd	fs0,128(s1)
    291e:	e52a                	fsw	fa0,136(sp)
    2920:	223c                	fld	fa5,64(a2)
    2922:	43e0                	lw	s0,68(a5)
    2924:	1b12                	slli	s6,s6,0x24
    2926:	090e1d17          	auipc	s10,0x90e1
    292a:	0b0d                	addi	s6,s6,3
    292c:	8bf2                	mv	s7,t3
    292e:	b62dadc7          	fmsub.q	fs11,fs11,ft2,fs6,rdn
    2932:	b9a8                	fsd	fa0,112(a1)
    2934:	1e14                	addi	a3,sp,816
    2936:	c8a9                	beqz	s1,2988 <_aes_decrypt_table+0x350>
    2938:	8519f157          	0x8519f157
    293c:	4c0775af          	0x4c0775af
    2940:	99ee                	add	s3,s3,s11
    2942:	bbdd                	j	2738 <_aes_decrypt_table+0x100>
    2944:	fd607fa3          	0xfd607fa3
    2948:	9f2601f7          	0x9f2601f7
    294c:	725c                	flw	fa5,36(a2)
    294e:	bcf5                	j	244a <__call_exitprocs+0x86>
    2950:	6644                	flw	fs1,12(a2)
    2952:	fb5bc53b          	0xfb5bc53b
    2956:	347e                	fld	fs0,504(sp)
    2958:	7629438b          	0x7629438b
    295c:	dcc623cb          	0xdcc623cb
    2960:	edb6                	fsw	fa3,216(sp)
    2962:	68fc                	flw	fa5,84(s1)
    2964:	e4b8                	fsw	fa4,72(s1)
    2966:	63f1                	lui	t2,0x1c
    2968:	cadc31d7          	0xcadc31d7
    296c:	6342                	flw	ft6,16(sp)
    296e:	1085                	addi	ra,ra,-31
    2970:	40229713          	0x40229713
    2974:	c684                	sw	s1,8(a3)
    2976:	2011                	jal	297a <_aes_decrypt_table+0x342>
    2978:	4a85                	li	s5,1
    297a:	7d24                	flw	fs1,120(a0)
    297c:	bbd2                	fsd	fs4,496(sp)
    297e:	f83d                	bnez	s0,28f4 <_aes_decrypt_table+0x2bc>
    2980:	f9ae                	fsw	fa1,240(sp)
    2982:	1132                	slli	sp,sp,0x2c
    2984:	6da129c7          	0x6da129c7
    2988:	9e1d                	0x9e1d
    298a:	b2dc4b2f          	0xb2dc4b2f
    298e:	f330                	fsw	fa2,96(a4)
    2990:	860d                	srai	a2,a2,0x3
    2992:	ec52                	fsw	fs4,24(sp)
    2994:	d0e3c177          	0xd0e3c177
    2998:	6c16b32b          	0x6c16b32b
    299c:	70a9                	lui	ra,0xfffea
    299e:	99b9                	andi	a1,a1,-18
    29a0:	9411                	srai	s0,s0,0x24
    29a2:	fa48                	fsw	fa0,52(a2)
    29a4:	2264e947          	fmsub.d	fs2,fs1,ft6,ft4,unknown
    29a8:	fca8                	fsw	fa0,120(s1)
    29aa:	c48c                	sw	a1,8(s1)
    29ac:	f0a0                	fsw	fs0,96(s1)
    29ae:	7d561a3f 3322d82c 	0x3322d82c7d561a3f
    29b6:	ef90                	fsw	fa2,24(a5)
    29b8:	c74e4987          	flq	fs3,-908(t3)
    29bc:	38d9                	jal	2292 <__libc_init_array+0x46>
    29be:	c1d1                	beqz	a1,2a42 <_aes_decrypt_table+0x40a>
    29c0:	ca8c                	sw	a1,16(a3)
    29c2:	fea2                	fsw	fs0,124(sp)
    29c4:	d498                	sw	a4,40(s1)
    29c6:	f5a6360b          	0xf5a6360b
    29ca:	cf81                	beqz	a5,29e2 <_aes_decrypt_table+0x3aa>
    29cc:	7aa5                	lui	s5,0xfffe9
    29ce:	28de                	fld	fa7,464(sp)
    29d0:	b7da                	fsd	fs6,488(sp)
    29d2:	268e                	fld	fa3,192(sp)
    29d4:	a4bfad3f e49d3a2c 	0xe49d3a2ca4bfad3f
    29dc:	7850                	flw	fa2,52(s0)
    29de:	0d92                	slli	s11,s11,0x4
    29e0:	5f6a                	lw	t5,184(sp)
    29e2:	9bcc                	0x9bcc
    29e4:	7e54                	flw	fa3,60(a2)
    29e6:	6246                	flw	ft4,80(sp)
    29e8:	8df6                	mv	s11,t4
    29ea:	d890c213          	xori	tp,ra,-631
    29ee:	e8b8                	fsw	fa4,80(s1)
    29f0:	392e                	fld	fs2,232(sp)
    29f2:	c3825ef7          	0xc3825ef7
    29f6:	5d9ff5af          	0x5d9ff5af
    29fa:	be80                	fsd	fs0,56(a3)
    29fc:	d069                	beqz	s0,29be <_aes_decrypt_table+0x386>
    29fe:	d56f7c93          	andi	s9,t5,-682
    2a02:	a92d                	j	2e3c <_aes_decrypt_table+0x804>
    2a04:	b31225cf          	fnmadd.d	fa1,ft4,fa7,fs6,rdn
    2a08:	acc8                	fsd	fa0,152(s1)
    2a0a:	3b99                	jal	2760 <_aes_decrypt_table+0x128>
    2a0c:	1810                	addi	a2,sp,48
    2a0e:	a77d                	j	31bc <_aes_decrypt_table+0xb84>
    2a10:	9ce8                	0x9ce8
    2a12:	3bdb6e63          	bltu	s6,t4,2dce <_aes_decrypt_table+0x796>
    2a16:	26cd7bbb          	0x26cd7bbb
    2a1a:	0978                	addi	a4,sp,156
    2a1c:	596e                	lw	s2,248(sp)
    2a1e:	f418                	fsw	fa4,40(s0)
    2a20:	9aec                	0x9aec
    2a22:	4f8301b7          	lui	gp,0x4f830
    2a26:	a89a                	fsd	ft6,80(sp)
    2a28:	95e6                	add	a1,a1,s9
    2a2a:	656e                	flw	fa0,216(sp)
    2a2c:	ffaa                	fsw	fa0,252(sp)
    2a2e:	7ee6                	flw	ft9,120(sp)
    2a30:	bc21                	j	2448 <__call_exitprocs+0x84>
    2a32:	15ef08cf          	0x15ef08cf
    2a36:	e6e8                	fsw	fa0,76(a3)
    2a38:	e7ba                	fsw	fa4,204(sp)
    2a3a:	6f4ad99b          	0x6f4ad99b
    2a3e:	ce36                	sw	a3,28(sp)
    2a40:	9fea                	add	t6,t6,s10
    2a42:	d409                	beqz	s0,294c <_aes_decrypt_table+0x314>
    2a44:	b029                	j	224e <__libc_init_array+0x2>
    2a46:	d67c                	sw	a5,108(a2)
    2a48:	a431                	j	2c54 <_aes_decrypt_table+0x61c>
    2a4a:	afb2                	fsd	fa2,472(sp)
    2a4c:	3f2a                	fld	ft10,168(sp)
    2a4e:	a5c63123          	0xa5c63123
    2a52:	3094                	fld	fa3,32(s1)
    2a54:	a235                	j	2b80 <_aes_decrypt_table+0x548>
    2a56:	c066                	sw	s9,0(sp)
    2a58:	4e74                	lw	a3,92(a2)
    2a5a:	37bc                	fld	fa5,104(a5)
    2a5c:	82fc                	0x82fc
    2a5e:	a6ca                	fsd	fs2,328(sp)
    2a60:	90e0                	0x90e0
    2a62:	b0d0                	fsd	fa2,160(s1)
    2a64:	15d8a733          	0x15d8a733
    2a68:	04f1                	addi	s1,s1,28
    2a6a:	4a98                	lw	a4,16(a3)
    2a6c:	ec41                	bnez	s0,2b04 <_aes_decrypt_table+0x4cc>
    2a6e:	f7da                	fsw	fs6,236(sp)
    2a70:	cd7f                	0xcd7f
    2a72:	0e50                	addi	a2,sp,788
    2a74:	2ff69117          	auipc	sp,0x2ff69
    2a78:	4d76                	lw	s10,92(sp)
    2a7a:	8dd6                	mv	s11,s5
    2a7c:	4db0ef43          	0x4db0ef43
    2a80:	aacc                	fsd	fa1,144(a3)
    2a82:	544d                	li	s0,-13
    2a84:	96e4                	0x96e4
    2a86:	df04                	sw	s1,56(a4)
    2a88:	d19e                	sw	t2,224(sp)
    2a8a:	e3b5                	bnez	a5,2aee <_aes_decrypt_table+0x4b6>
    2a8c:	6a4c                	flw	fa1,20(a2)
    2a8e:	1b88                	addi	a0,sp,496
    2a90:	2cc1                	jal	2d60 <_aes_decrypt_table+0x728>
    2a92:	b81f 6546 7f51      	0x7f516546b81f
    2a98:	5e9d                	li	t4,-25
    2a9a:	04ea                	slli	s1,s1,0x1a
    2a9c:	8c01                	sub	s0,s0,s0
    2a9e:	5d35                	li	s10,-19
    2aa0:	87fa                	mv	a5,t5
    2aa2:	7374                	flw	fa3,100(a4)
    2aa4:	2e410bfb          	0x2e410bfb
    2aa8:	5a1d67b3          	0x5a1d67b3
    2aac:	db92                	sw	tp,244(sp)
    2aae:	52d2                	lw	t0,52(sp)
    2ab0:	10e9                	addi	ra,ra,-6
    2ab2:	3356                	fld	ft6,368(sp)
    2ab4:	d66d                	beqz	a2,2a9e <_aes_decrypt_table+0x466>
    2ab6:	d79a1347          	fmsub.q	ft6,fs4,fs9,fs10,rtz
    2aba:	8c61                	and	s0,s0,s0
    2abc:	7a0ca137          	lui	sp,0x7a0ca
    2ac0:	f859                	bnez	s0,2a56 <_aes_decrypt_table+0x41e>
    2ac2:	8e14                	0x8e14
    2ac4:	893c13eb          	0x893c13eb
    2ac8:	a9ce                	fsd	fs3,208(sp)
    2aca:	61b7ee27          	0x61b7ee27
    2ace:	35c9                	jal	2990 <_aes_decrypt_table+0x358>
    2ad0:	1ce1                	addi	s9,s9,-8
    2ad2:	ede5                	bnez	a1,2bca <_aes_decrypt_table+0x592>
    2ad4:	477a                	lw	a4,156(sp)
    2ad6:	3cb1                	jal	2532 <__libc_fini_array+0x4e>
    2ad8:	d29c                	sw	a5,32(a3)
    2ada:	59df f255 3f73      	0x3f73f25559df
    2ae0:	1418                	addi	a4,sp,544
    2ae2:	79ce                	flw	fs3,240(sp)
    2ae4:	bf37c773          	0xbf37c773
    2ae8:	eacdf753          	0xeacdf753
    2aec:	fd5f 5baa 3ddf      	0x3ddf5baafd5f
    2af2:	4478146f          	jal	s0,84738 <__BSS_END__+0x7ecd4>
    2af6:	afca86db          	0xafca86db
    2afa:	68b981f3          	0x68b981f3
    2afe:	3ec4                	fld	fs1,184(a3)
    2b00:	2438                	fld	fa4,72(s0)
    2b02:	2c34                	fld	fa3,88(s0)
    2b04:	a3c2                	fsd	fa6,448(sp)
    2b06:	5f40                	lw	s0,60(a4)
    2b08:	1d16                	slli	s10,s10,0x25
    2b0a:	e2bc72c3          	fmadd.d	ft5,fs8,fa1,ft8
    2b0e:	0c25                	addi	s8,s8,9
    2b10:	3c28                	fld	fa0,120(s0)
    2b12:	8b49                	andi	a4,a4,18
    2b14:	0dff                	0xdff
    2b16:	4195                	li	gp,5
    2b18:	a839                	j	2b36 <_aes_decrypt_table+0x4fe>
    2b1a:	7101                	addi	sp,sp,-512
    2b1c:	0c08                	addi	a0,sp,528
    2b1e:	b4d8deb3          	0xb4d8deb3
    2b22:	9ce4                	0x9ce4
    2b24:	5664                	lw	s1,108(a2)
    2b26:	90c1                	srli	s1,s1,0x30
    2b28:	6184cb7b          	0x6184cb7b
    2b2c:	32d5                	jal	2510 <__libc_fini_array+0x2c>
    2b2e:	70b6                	flw	ft1,108(sp)
    2b30:	6c48                	flw	fa0,28(s0)
    2b32:	745c                	flw	fa5,44(s0)
    2b34:	b8d0                	fsd	fa2,176(s1)
    2b36:	51504257          	0x51504257
    2b3a:	a7f4                	fsd	fa3,200(a5)
    2b3c:	65417e53          	0x65417e53
    2b40:	a4171ac3          	0xa4171ac3
    2b44:	3a96                	fld	fs5,352(sp)
    2b46:	3bcb5e27          	0x3bcb5e27
    2b4a:	1ff16bab          	0x1ff16bab
    2b4e:	459d                	li	a1,7
    2b50:	58faacab          	0x58faacab
    2b54:	03e34b93          	xori	s7,t1,62
    2b58:	2055                	jal	2bfc <_aes_decrypt_table+0x5c4>
    2b5a:	fa30                	fsw	fa2,112(a2)
    2b5c:	adf6                	fsd	ft9,216(sp)
    2b5e:	6d76                	flw	fs10,92(sp)
    2b60:	8891                	andi	s1,s1,4
    2b62:	76cc                	flw	fa1,44(a3)
    2b64:	f525                	bnez	a0,2acc <_aes_decrypt_table+0x494>
    2b66:	4c02                	lw	s8,0(sp)
    2b68:	4ffc                	lw	a5,92(a5)
    2b6a:	d7e5                	beqz	a5,2b52 <_aes_decrypt_table+0x51a>
    2b6c:	cb2ac5d7          	0xcb2ac5d7
    2b70:	2680                	fld	fs0,8(a3)
    2b72:	4435                	li	s0,13
    2b74:	a362b58f          	0xa362b58f
    2b78:	de49                	beqz	a2,2b12 <_aes_decrypt_table+0x4da>
    2b7a:	5ab1                	li	s5,-20
    2b7c:	1bba2567          	0x1bba2567
    2b80:	4598                	lw	a4,8(a1)
    2b82:	0eea                	slli	t4,t4,0x1a
    2b84:	5de1                	li	s11,-8
    2b86:	c0fe                	sw	t6,64(sp)
    2b88:	c302                	sw	zero,132(sp)
    2b8a:	8112752f          	0x8112752f
    2b8e:	f04c                	fsw	fa1,36(s0)
    2b90:	97468da3          	sb	s4,-1669(a3) # fffea97b <__BSS_END__+0xfffe4f17>
    2b94:	6bc6                	flw	fs7,80(sp)
    2b96:	03e7f9d3          	fadd.d	fs3,fa5,ft10
    2b9a:	15955f8f          	0x15955f8f
    2b9e:	9c92                	add	s9,s9,tp
    2ba0:	7a6dbfeb          	0x7a6dbfeb
    2ba4:	95da                	add	a1,a1,s6
    2ba6:	5952                	lw	s2,52(sp)
    2ba8:	d42d                	beqz	s0,2b12 <_aes_decrypt_table+0x4da>
    2baa:	83be                	mv	t2,a5
    2bac:	217458d3          	0x217458d3
    2bb0:	4929                	li	s2,10
    2bb2:	69e0                	flw	fs0,84(a1)
    2bb4:	8e44                	0x8e44
    2bb6:	c8c9                	beqz	s1,2c48 <_aes_decrypt_table+0x610>
    2bb8:	756a                	flw	fa0,184(sp)
    2bba:	89c2                	mv	s3,a6
    2bbc:	f478                	fsw	fa4,108(s0)
    2bbe:	798e                	flw	fs3,224(sp)
    2bc0:	3e58996b          	0x3e58996b
    2bc4:	27dd                	jal	33aa <_aes_decrypt_table+0xd72>
    2bc6:	71b9                	lui	gp,0xfffee
    2bc8:	beb6                	fsd	fa3,376(sp)
    2bca:	4fe1                	li	t6,24
    2bcc:	ad88f017          	auipc	zero,0xad88f
    2bd0:	c966                	sw	s9,144(sp)
    2bd2:	ac20                	fsd	fs0,88(s0)
    2bd4:	7db4                	flw	fa3,120(a1)
    2bd6:	3ace                	fld	fs5,240(sp)
    2bd8:	6318                	flw	fa4,0(a4)
    2bda:	4adf e582 311a      	0x311ae5824adf
    2be0:	9760                	0x9760
    2be2:	3351                	jal	2966 <_aes_decrypt_table+0x32e>
    2be4:	6245                	lui	tp,0x11
    2be6:	b1e07f53          	0xb1e07f53
    2bea:	7764                	flw	fs1,108(a4)
    2bec:	bb84                	fsd	fs1,48(a5)
    2bee:	fe1cae6b          	0xfe1cae6b
    2bf2:	a081                	j	2c32 <_aes_decrypt_table+0x5fa>
    2bf4:	f994                	fsw	fa3,48(a1)
    2bf6:	2b08                	fld	fa0,16(a4)
    2bf8:	7058                	flw	fa4,36(s0)
    2bfa:	6848                	flw	fa0,20(s0)
    2bfc:	8f19                	sub	a4,a4,a4
    2bfe:	fd45                	bnez	a0,2bb6 <_aes_decrypt_table+0x57e>
    2c00:	6cde9487          	0x6cde9487
    2c04:	f87b52b7          	lui	t0,0xf87b5
    2c08:	d373ab23          	sw	s7,-714(t2) # 1bd36 <__BSS_END__+0x162d2>
    2c0c:	72e2                	flw	ft5,56(sp)
    2c0e:	e357024b          	fnmsub.d	ft4,fa4,fs5,ft8,rne
    2c12:	8f1f 662a ab55      	0xab55662a8f1f
    2c18:	28ebb207          	fld	ft4,654(s7)
    2c1c:	c2b52f03          	lw	t5,-981(a0) # 16c2b <__BSS_END__+0x111c7>
    2c20:	869a                	mv	a3,t1
    2c22:	7bc5                	lui	s7,0xffff1
    2c24:	d3a5                	beqz	a5,2b84 <_aes_decrypt_table+0x54c>
    2c26:	30f20837          	lui	a6,0x30f20
    2c2a:	8728                	0x8728
    2c2c:	23b2                	fld	ft7,264(sp)
    2c2e:	02baa5bf ed5c6a03 	0xed5c6a0302baa5bf
    2c36:	8216                	mv	tp,t0
    2c38:	1ccf8a2b          	0x1ccf8a2b
    2c3c:	a792                	fsd	ft4,456(sp)
    2c3e:	b479                	j	26cc <_aes_decrypt_table+0x94>
    2c40:	f3f0                	fsw	fa2,100(a5)
    2c42:	4ea1f207          	0x4ea1f207
    2c46:	e269                	bnez	a2,2d08 <_aes_decrypt_table+0x6d0>
    2c48:	65cd                	lui	a1,0x13
    2c4a:	f4da                	fsw	fs6,104(sp)
    2c4c:	06d5                	addi	a3,a3,21
    2c4e:	be05                	j	277e <_aes_decrypt_table+0x146>
    2c50:	d11f 6234 c48a      	0xc48a6234d11f
    2c56:	fea6                	fsw	fs1,124(sp)
    2c58:	349d                	jal	26be <_aes_decrypt_table+0x86>
    2c5a:	532e                	lw	t1,232(sp)
    2c5c:	a2a0                	fsd	fs0,64(a3)
    2c5e:	053255f3          	csrrwi	a1,0x53,4
    2c62:	e18a                	fsw	ft2,192(sp)
    2c64:	a475                	j	2f10 <_aes_decrypt_table+0x8d8>
    2c66:	ebf6                	fsw	ft9,212(sp)
    2c68:	0b39                	addi	s6,s6,14
    2c6a:	40aaec83          	0x40aaec83
    2c6e:	ef60                	fsw	fs0,92(a4)
    2c70:	5e06                	lw	t3,96(sp)
    2c72:	9f71                	0x9f71
    2c74:	bd51                	j	2b08 <_aes_decrypt_table+0x4d0>
    2c76:	106e                	c.slli	zero,0x3b
    2c78:	3ef9                	jal	2856 <_aes_decrypt_table+0x21e>
    2c7a:	8a21                	andi	a2,a2,8
    2c7c:	963d                	srai	a2,a2,0x2f
    2c7e:	06dd                	addi	a3,a3,23
    2c80:	ddae                	sw	a1,248(sp)
    2c82:	053e                	slli	a0,a0,0xf
    2c84:	4d46                	lw	s10,80(sp)
    2c86:	bde6                	fsd	fs9,248(sp)
    2c88:	91b5                	srli	a1,a1,0x2d
    2c8a:	8d54                	0x8d54
    2c8c:	7105                	addi	sp,sp,-480
    2c8e:	5dc4                	lw	s1,60(a1)
    2c90:	d406046f          	jal	s0,fff631d0 <__BSS_END__+0xfff5d76c>
    2c94:	60ff                	0x60ff
    2c96:	1550                	addi	a2,sp,676
    2c98:	1924                	addi	s1,sp,184
    2c9a:	fb98                	fsw	fa4,48(a5)
    2c9c:	e9bdd697          	auipc	a3,0xe9bdd
    2ca0:	89cc                	0x89cc
    2ca2:	4340                	lw	s0,4(a4)
    2ca4:	9ed96777          	0x9ed96777
    2ca8:	b0bd                	j	2516 <__libc_fini_array+0x32>
    2caa:	42e8                	lw	a0,68(a3)
    2cac:	0788                	addi	a0,sp,960
    2cae:	8b89                	andi	a5,a5,2
    2cb0:	e738                	fsw	fa4,72(a4)
    2cb2:	5b19                	li	s6,-26
    2cb4:	eec879db          	0xeec879db
    2cb8:	0a7ca147          	fmsub.d	ft2,fs9,ft7,ft1,rdn
    2cbc:	7ce9                	lui	s9,0xffffa
    2cbe:	0f42                	slli	t5,t5,0x10
    2cc0:	f8c9                	bnez	s1,2c52 <_aes_decrypt_table+0x61a>
    2cc2:	1e84                	addi	s1,sp,880
    2cc4:	0000                	unimp
    2cc6:	0000                	unimp
    2cc8:	86800983          	lb	s3,-1944(zero) # fffff868 <__BSS_END__+0xffff9e04>
    2ccc:	3248                	fld	fa0,160(a2)
    2cce:	1eaced2b          	0x1eaced2b
    2cd2:	7011                	c.lui	zero,0xfffe4
    2cd4:	6c4e                	flw	fs8,208(sp)
    2cd6:	725a                	flw	ft4,180(sp)
    2cd8:	ff0efdfb          	0xff0efdfb
    2cdc:	0f56                	slli	t5,t5,0x15
    2cde:	3885                	jal	254e <atexit+0xe>
    2ce0:	3d1e                	fld	fs10,480(sp)
    2ce2:	d5ae                	sw	a1,232(sp)
    2ce4:	392d3627          	fsd	fs2,908(s10) # 90e3cb2 <__BSS_END__+0x90de24e>
    2ce8:	0a64                	addi	s1,sp,284
    2cea:	6821d90f          	0x6821d90f
    2cee:	a65c                	fsd	fa5,136(a2)
    2cf0:	9bd1                	andi	a5,a5,-12
    2cf2:	243a545b          	0x243a545b
    2cf6:	2e36                	fld	ft8,328(sp)
    2cf8:	0cb1                	addi	s9,s9,12
    2cfa:	670a                	flw	fa4,128(sp)
    2cfc:	e757930f          	0xe757930f
    2d00:	b4d2                	fsd	fs4,104(sp)
    2d02:	96ee                	add	a3,a3,s11
    2d04:	1b9e                	slli	s7,s7,0x27
    2d06:	804f919b          	0x804f919b
    2d0a:	c5c0                	sw	s0,12(a1)
    2d0c:	61a2                	flw	ft3,8(sp)
    2d0e:	20dc                	fld	fa5,128(s1)
    2d10:	5a69                	li	s4,-6
    2d12:	1c164b77          	0x1c164b77
    2d16:	1a12                	slli	s4,s4,0x24
    2d18:	e20a                	fsw	ft2,4(sp)
    2d1a:	c0e5ba93          	sltiu	s5,a1,-1010
    2d1e:	2aa0                	fld	fs0,80(a3)
    2d20:	e0223c43          	fmadd.s	fs8,ft4,ft2,ft8,rup
    2d24:	121d                	addi	tp,tp,-25
    2d26:	0e0b171b          	0xe0b171b
    2d2a:	0d09                	addi	s10,s10,2
    2d2c:	f2ad                	bnez	a3,2c8e <_aes_decrypt_table+0x656>
    2d2e:	2db9c78b          	0x2db9c78b
    2d32:	a8b6                	fsd	fa3,80(sp)
    2d34:	14c8                	addi	a0,sp,612
    2d36:	a91e                	fsd	ft7,144(sp)
    2d38:	5785                	li	a5,-31
    2d3a:	19f1                	addi	s3,s3,-4
    2d3c:	af4c                	fsd	fa1,152(a4)
    2d3e:	0775                	addi	a4,a4,29
    2d40:	dd99eebb          	0xdd99eebb
    2d44:	a3fd                	j	3332 <_aes_decrypt_table+0xcfa>
    2d46:	607f                	0x607f
    2d48:	f79f 2601 5cbc      	0x5cbc2601f79f
    2d4e:	f572                	fsw	ft8,168(sp)
    2d50:	44c5                	li	s1,17
    2d52:	3b66                	fld	fs6,120(sp)
    2d54:	5b34                	lw	a3,112(a4)
    2d56:	8b767efb          	0x8b767efb
    2d5a:	cbdc2943          	fmadd.d	fs2,fs8,ft9,fs9,rdn
    2d5e:	b668c623          	0xb668c623
    2d62:	fced                	bnez	s1,2d5c <_aes_decrypt_table+0x724>
    2d64:	f1e4b863          	0xf1e4b863
    2d68:	d7ca                	sw	s2,236(sp)
    2d6a:	dc31                	beqz	s0,2cc6 <_aes_decrypt_table+0x68e>
    2d6c:	4210                	lw	a2,0(a2)
    2d6e:	13408563          	beq	ra,s4,2e98 <_aes_decrypt_table+0x860>
    2d72:	84202297          	auipc	t0,0x84202
    2d76:	11c6                	slli	gp,gp,0x31
    2d78:	857d                	srai	a0,a0,0x1f
    2d7a:	244a                	fld	fs0,144(sp)
    2d7c:	d2f8                	sw	a4,100(a3)
    2d7e:	ae113dbb          	0xae113dbb
    2d82:	32f9                	jal	2750 <_aes_decrypt_table+0x118>
    2d84:	c76d                	beqz	a4,2e6e <_aes_decrypt_table+0x836>
    2d86:	a129                	j	3190 <_aes_decrypt_table+0xb58>
    2d88:	2f9e1d4b          	fnmsub.q	fs10,ft8,fs9,ft5,rtz
    2d8c:	30b2dcf3          	csrrwi	s9,0x30b,5
    2d90:	0dec                	addi	a1,sp,732
    2d92:	5286                	lw	t0,96(sp)
    2d94:	77d0                	flw	fa2,44(a5)
    2d96:	e3c1                	bnez	a5,2e16 <_aes_decrypt_table+0x7de>
    2d98:	2b6c                	fld	fa1,208(a4)
    2d9a:	a99916b3          	0xa99916b3
    2d9e:	b970                	fsd	fa2,240(a0)
    2da0:	11fa                	slli	gp,gp,0x3e
    2da2:	4894                	lw	a3,16(s1)
    2da4:	4722                	lw	a4,8(sp)
    2da6:	64e9                	lui	s1,0x1a
    2da8:	a8c4                	fsd	fs1,144(s1)
    2daa:	8cfc                	0x8cfc
    2dac:	a01a                	fsd	ft6,0(sp)
    2dae:	3ff0                	fld	fa2,248(a5)
    2db0:	56d8                	lw	a4,44(a3)
    2db2:	2c7d                	jal	3070 <_aes_decrypt_table+0xa38>
    2db4:	903322ef          	jal	t0,fff356b6 <__BSS_END__+0xfff2fc52>
    2db8:	4e4987c7          	fmsub.q	fa5,fs3,ft4,fs1,rne
    2dbc:	d9c1                	beqz	a1,2d4c <_aes_decrypt_table+0x714>
    2dbe:	d138                	sw	a4,96(a0)
    2dc0:	8cfe                	mv	s9,t6
    2dc2:	a2ca                	fsd	fs2,320(sp)
    2dc4:	9836                	add	a6,a6,a3
    2dc6:	0bd4                	addi	a3,sp,468
    2dc8:	81f5a6cf          	fnmadd.s	fa3,fa1,ft11,fa6,rdn
    2dcc:	a528                	fsd	fa0,72(a0)
    2dce:	de7a                	sw	t5,60(sp)
    2dd0:	da26                	sw	s1,52(sp)
    2dd2:	3fa48eb7          	lui	t4,0x3fa48
    2dd6:	bfad                	j	2d50 <_aes_decrypt_table+0x718>
    2dd8:	2ce4                	fld	fs1,216(s1)
    2dda:	9d3a                	add	s10,s10,a4
    2ddc:	500d                	c.li	zero,-29
    2dde:	9278                	0x9278
    2de0:	cc5f6a9b          	0xcc5f6a9b
    2de4:	5462                	lw	s0,56(sp)
    2de6:	467e                	lw	a2,220(sp)
    2de8:	f6c2                	fsw	fa6,108(sp)
    2dea:	138d                	addi	t2,t2,-29
    2dec:	90e8                	0x90e8
    2dee:	b8d8                	fsd	fa4,176(s1)
    2df0:	2e5e                	fld	ft8,464(sp)
    2df2:	f739                	bnez	a4,2d40 <_aes_decrypt_table+0x708>
    2df4:	82f5                	srli	a3,a3,0x1d
    2df6:	9fbeafc3          	fmadd.q	ft11,ft9,fs11,fs3,rdn
    2dfa:	805d                	srli	s0,s0,0x17
    2dfc:	697c                	flw	fa5,84(a0)
    2dfe:	93d0                	0x93d0
    2e00:	6fa9                	lui	t6,0xa
    2e02:	2dd5                	jal	34f6 <_aes_decrypt_table+0xebe>
    2e04:	1225cfb3          	0x1225cfb3
    2e08:	99acc83b          	0x99acc83b
    2e0c:	7d1810a7          	0x7d1810a7
    2e10:	e86e                	fsw	fs11,16(sp)
    2e12:	639c                	flw	fa5,0(a5)
    2e14:	bb3bdb7b          	0xbb3bdb7b
    2e18:	cd09                	beqz	a0,2e32 <_aes_decrypt_table+0x7fa>
    2e1a:	7826                	flw	fa6,104(sp)
    2e1c:	6ef4                	flw	fa3,92(a3)
    2e1e:	1859                	addi	a6,a6,-10
    2e20:	ec01                	bnez	s0,2e38 <_aes_decrypt_table+0x800>
    2e22:	b79a                	fsd	ft6,488(sp)
    2e24:	83a8                	0x83a8
    2e26:	e6659a4f          	fnmadd.q	fs4,fa1,ft6,ft8,rtz
    2e2a:	6e95                	lui	t4,0x5
    2e2c:	aa7e                	fsd	ft11,272(sp)
    2e2e:	e6ff                	0xe6ff
    2e30:	2108                	fld	fa0,0(a0)
    2e32:	cfbc                	sw	a5,88(a5)
    2e34:	efe6                	fsw	fs9,220(sp)
    2e36:	e815                	bnez	s0,2e6a <_aes_decrypt_table+0x832>
    2e38:	bad9                	j	280e <_aes_decrypt_table+0x1d6>
    2e3a:	4ace9be7          	0x4ace9be7
    2e3e:	ead4366f          	jal	a2,fff46cea <__BSS_END__+0xfff41286>
    2e42:	099f 29d6 7cb0      	0x7cb029d6099f
    2e48:	b2a431af          	0xb2a431af
    2e4c:	2a31                	jal	2f68 <_aes_decrypt_table+0x930>
    2e4e:	c630233f 35c094a5 	0x35c094a5c630233f
    2e56:	66a2                	flw	fa3,8(sp)
    2e58:	bc4e7437          	lui	s0,0xbc4e7
    2e5c:	fca6                	fsw	fs1,120(sp)
    2e5e:	ca82                	sw	zero,84(sp)
    2e60:	e0b0                	fsw	fa2,64(s1)
    2e62:	d090                	sw	a2,32(s1)
    2e64:	3315                	jal	2b88 <_aes_decrypt_table+0x550>
    2e66:	f14ad8a7          	0xf14ad8a7
    2e6a:	9804                	0x9804
    2e6c:	daec41f7          	0xdaec41f7
    2e70:	7f0e                	flw	ft10,224(sp)
    2e72:	50cd                	li	ra,-13
    2e74:	f691172f          	0xf691172f
    2e78:	768d                	lui	a3,0xfffe3
    2e7a:	d64d                	beqz	a2,2e24 <_aes_decrypt_table+0x7ec>
    2e7c:	434d                	li	t1,19
    2e7e:	cc54b0ef          	jal	ra,fff4eb42 <__BSS_END__+0xfff490de>
    2e82:	4daa                	lw	s11,136(sp)
    2e84:	e4df 0496 9ee3      	0x9ee30496e4df
    2e8a:	b5d1                	j	2d4e <_aes_decrypt_table+0x716>
    2e8c:	886a4c1b          	0x886a4c1b
    2e90:	c1b8                	sw	a4,64(a1)
    2e92:	1f2c                	addi	a1,sp,952
    2e94:	467f                	0x467f
    2e96:	5165                	li	sp,-7
    2e98:	9d04                	0x9d04
    2e9a:	ea5e                	fsw	fs7,20(sp)
    2e9c:	015d                	addi	sp,sp,23
    2e9e:	358c                	fld	fa1,40(a1)
    2ea0:	7487fa73          	csrrci	s4,0x748,15
    2ea4:	fb2e                	fsw	fa1,180(sp)
    2ea6:	b35a410b          	0xb35a410b
    2eaa:	92521d67          	0x92521d67
    2eae:	e933d2db          	0xe933d2db
    2eb2:	5610                	lw	a2,40(a2)
    2eb4:	47d66d13          	ori	s10,a2,1149
    2eb8:	9a8c                	0x9a8c
    2eba:	377a61d7          	0x377a61d7
    2ebe:	0ca1                	addi	s9,s9,8
    2ec0:	598e                	lw	s3,224(sp)
    2ec2:	14f8                	addi	a4,sp,620
    2ec4:	eb89                	bnez	a5,2ed6 <_aes_decrypt_table+0x89e>
    2ec6:	ceee3c13          	sltiu	s8,t3,-786
    2eca:	27a9                	jal	3614 <_aes_decrypt_table+0xfdc>
    2ecc:	b735                	j	2df8 <_aes_decrypt_table+0x7c0>
    2ece:	c961                	beqz	a0,2f9e <_aes_decrypt_table+0x966>
    2ed0:	e1ed                	bnez	a1,2fb2 <_aes_decrypt_table+0x97a>
    2ed2:	e51c                	fsw	fa5,8(a0)
    2ed4:	7a3c                	flw	fa5,112(a2)
    2ed6:	9c59b147          	0x9c59b147
    2eda:	dfd2                	sw	s4,252(sp)
    2edc:	73f2553f ce141879 	0xce14187973f2553f
    2ee4:	37c773bf cdf753ea 	0xcdf753ea37c773bf
    2eec:	aafd5f5b          	0xaafd5f5b
    2ef0:	df14                	sw	a3,56(a4)
    2ef2:	6f3d                	lui	t5,0xf
    2ef4:	7886                	flw	fa7,96(sp)
    2ef6:	db44                	sw	s1,52(a4)
    2ef8:	ca81                	beqz	a3,2f08 <_aes_decrypt_table+0x8d0>
    2efa:	b93ef3af          	0xb93ef3af
    2efe:	c468                	sw	a0,76(s0)
    2f00:	382c                	fld	fa1,112(s0)
    2f02:	3424                	fld	fs1,104(s0)
    2f04:	c25f 40a3 1672      	0x167240a3c25f
    2f0a:	c31d                	beqz	a4,2f30 <_aes_decrypt_table+0x8f8>
    2f0c:	bc0c                	fsd	fa1,56(s0)
    2f0e:	25e2                	fld	fa1,24(sp)
    2f10:	493c288b          	0x493c288b
    2f14:	ff41                	bnez	a4,2eac <_aes_decrypt_table+0x874>
    2f16:	950d                	srai	a0,a0,0x23
    2f18:	3971                	jal	2bb4 <_aes_decrypt_table+0x57c>
    2f1a:	01a8                	addi	a0,sp,200
    2f1c:	08de                	slli	a7,a7,0x17
    2f1e:	b30c                	fsd	fa1,32(a4)
    2f20:	d89c                	sw	a5,48(s1)
    2f22:	e4b4                	fsw	fa3,72(s1)
    2f24:	6490                	flw	fa2,8(s1)
    2f26:	c156                	sw	s5,128(sp)
    2f28:	7b61                	lui	s6,0xffff8
    2f2a:	d57084cb          	0xd57084cb
    2f2e:	b632                	fsd	fa2,296(sp)
    2f30:	4874                	lw	a3,84(s0)
    2f32:	5c6c                	lw	a1,124(s0)
    2f34:	d042                	sw	a6,32(sp)
    2f36:	57b8                	lw	a4,104(a5)
    2f38:	f45150a7          	0xf45150a7
    2f3c:	5365                	li	t1,-7
    2f3e:	417e                	lw	sp,220(sp)
    2f40:	c3a4                	sw	s1,64(a5)
    2f42:	171a                	slli	a4,a4,0x26
    2f44:	965e                	add	a2,a2,s7
    2f46:	273a                	fld	fa4,392(sp)
    2f48:	ab3bcb6b          	0xab3bcb6b
    2f4c:	f145                	bnez	a0,2eec <_aes_decrypt_table+0x8b4>
    2f4e:	9d1f ab58 faac      	0xfaacab589d1f
    2f54:	e34b9303          	lh	t1,-460(s7) # ffff0e34 <__BSS_END__+0xfffeb3d0>
    2f58:	55fa                	lw	a1,188(sp)
    2f5a:	3020                	fld	fs0,96(s0)
    2f5c:	f66d                	bnez	a2,2f46 <_aes_decrypt_table+0x90e>
    2f5e:	76ad                	lui	a3,0xfffeb
    2f60:	9176                	add	sp,sp,t4
    2f62:	cc88                	sw	a0,24(s1)
    2f64:	254c                	fld	fa1,136(a0)
    2f66:	02f5                	addi	t0,t0,29
    2f68:	e54ffcd7          	0xe54ffcd7
    2f6c:	2ac5d7cb          	fnmsub.d	fa5,fa1,fa2,ft5,unknown
    2f70:	8044                	0x8044
    2f72:	3526                	fld	fa0,104(sp)
    2f74:	62b58fa3          	sb	a1,1599(a1) # 1363f <__BSS_END__+0xdbdb>
    2f78:	495a                	lw	s2,148(sp)
    2f7a:	b1de                	fsd	fs7,224(sp)
    2f7c:	ba25671b          	0xba25671b
    2f80:	980e                	add	a6,a6,gp
    2f82:	ea45                	bnez	a2,3032 <_aes_decrypt_table+0x9fa>
    2f84:	e1c0                	fsw	fs0,4(a1)
    2f86:	fe5d                	bnez	a2,2f44 <_aes_decrypt_table+0x90c>
    2f88:	0275                	addi	tp,tp,29
    2f8a:	12f02fc3          	fmadd.d	ft11,ft0,fa5,ft2,rdn
    2f8e:	4c81                	li	s9,0
    2f90:	468da397          	auipc	t2,0x468da
    2f94:	c6f9                	beqz	a3,3062 <_aes_decrypt_table+0xa2a>
    2f96:	e75fd36b          	0xe75fd36b
    2f9a:	959c8f03          	lb	t5,-1703(s9) # ffff9959 <__BSS_END__+0xffff3ef5>
    2f9e:	9215                	srli	a2,a2,0x25
    2fa0:	eb7a                	fsw	ft10,148(sp)
    2fa2:	da596dbf 2d835295 	0x2d835295da596dbf
    2faa:	bed4                	fsd	fa3,184(a3)
    2fac:	d321                	beqz	a4,2eec <_aes_decrypt_table+0x8b4>
    2fae:	7458                	flw	fa4,44(s0)
    2fb0:	2969                	jal	344a <_aes_decrypt_table+0xe12>
    2fb2:	e049                	bnez	s0,3034 <_aes_decrypt_table+0x9fc>
    2fb4:	44c8                	lw	a0,12(s1)
    2fb6:	c98e                	sw	gp,208(sp)
    2fb8:	6a89                	lui	s5,0x2
    2fba:	c275                	beqz	a2,309e <_aes_decrypt_table+0xa66>
    2fbc:	7879                	lui	a6,0xffffe
    2fbe:	8ef4                	0x8ef4
    2fc0:	6b3e                	flw	fs6,204(sp)
    2fc2:	5899                	li	a7,-26
    2fc4:	dd71                	beqz	a0,2fa0 <_aes_decrypt_table+0x968>
    2fc6:	b64fb927          	fsd	ft4,-1166(t6) # 9b72 <__BSS_END__+0x410e>
    2fca:	e1be                	fsw	fa5,192(sp)
    2fcc:	17ad                	addi	a5,a5,-21
    2fce:	88f0                	0x88f0
    2fd0:	66ac                	flw	fa1,72(a3)
    2fd2:	20c9                	jal	3094 <_aes_decrypt_table+0xa5c>
    2fd4:	b43a                	fsd	fa4,40(sp)
    2fd6:	ce7d                	beqz	a2,30d4 <_aes_decrypt_table+0xa9c>
    2fd8:	184a                	slli	a6,a6,0x32
    2fda:	8231df63          	bge	gp,gp,2018 <aes_encrypt+0x2c>
    2fde:	1ae5                	addi	s5,s5,-7
    2fe0:	51976033          	0x51976033
    2fe4:	457f                	0x457f
    2fe6:	5362                	lw	t1,56(sp)
    2fe8:	64b1e077          	0x64b1e077
    2fec:	84ae                	mv	s1,a1
    2fee:	1ca06bbb          	0x1ca06bbb
    2ff2:	81fe                	mv	gp,t6
    2ff4:	08f9942b          	0x8f9942b
    2ff8:	5868                	lw	a0,116(s0)
    2ffa:	4870                	lw	a2,84(s0)
    2ffc:	19fd                	addi	s3,s3,-1
    2ffe:	876c458f          	0x876c458f
    3002:	de94                	sw	a3,56(a3)
    3004:	b7f8                	fsd	fa4,232(a5)
    3006:	7b52                	flw	fs6,52(sp)
    3008:	73ab23d3          	0x73ab23d3
    300c:	e202                	fsw	ft0,4(sp)
    300e:	4b72                	lw	s6,28(sp)
    3010:	1fe3578f          	0x1fe3578f
    3014:	55662aab          	0x55662aab
    3018:	0728                	addi	a0,sp,904
    301a:	ebb2                	fsw	fa2,212(sp)
    301c:	03c2                	slli	t2,t2,0x10
    301e:	9a7bb52f          	0x9a7bb52f
    3022:	c586                	sw	ra,200(sp)
    3024:	a508                	fsd	fa0,8(a0)
    3026:	f28737d3          	0xf28737d3
    302a:	2830                	fld	fa2,80(s0)
    302c:	b2a5                	j	2994 <_aes_decrypt_table+0x35c>
    302e:	ba6abf23          	0xba6abf23
    3032:	0302                	c.slli64	t1
    3034:	5c82                	lw	s9,32(sp)
    3036:	16ed                	addi	a3,a3,-5
    3038:	2b1c                	fld	fa5,16(a4)
    303a:	cf8a                	sw	sp,220(sp)
    303c:	92b4                	0x92b4
    303e:	f0f279a7          	0xf0f279a7
    3042:	a1e207f3          	0xa1e207f3
    3046:	694e                	flw	fs2,208(sp)
    3048:	cdf4                	sw	a3,92(a1)
    304a:	da65                	beqz	a2,303a <_aes_decrypt_table+0xa02>
    304c:	d5be                	sw	a5,232(sp)
    304e:	0506                	slli	a0,a0,0x1
    3050:	1f62                	slli	t5,t5,0x38
    3052:	34d1                	jal	2b16 <_aes_decrypt_table+0x4de>
    3054:	8afe                	mv	s5,t6
    3056:	a6c4                	fsd	fs1,136(a3)
    3058:	2e349d53          	fmax.q	fs10,fs1,ft3
    305c:	a055                	j	3100 <_aes_decrypt_table+0xac8>
    305e:	f3a2                	fsw	fs0,228(sp)
    3060:	32e1                	jal	2a28 <_aes_decrypt_table+0x3f0>
    3062:	8a05                	andi	a2,a2,1
    3064:	f6a475eb          	0xf6a475eb
    3068:	39ec                	fld	fa1,240(a1)
    306a:	aaef830b          	0xaaef830b
    306e:	6040                	flw	fs0,4(s0)
    3070:	069f 715e 5110      	0x5110715e069f
    3076:	6ebd                	lui	t4,0xf
    3078:	f98a                	fsw	ft2,240(sp)
    307a:	213e                	fld	ft2,456(sp)
    307c:	3d06                	fld	fs10,96(sp)
    307e:	dd96                	sw	t0,248(sp)
    3080:	ae05                	j	33b0 <_aes_decrypt_table+0xd78>
    3082:	3edd                	jal	2c78 <_aes_decrypt_table+0x640>
    3084:	46bd                	li	a3,15
    3086:	e64d                	bnez	a2,3130 <_aes_decrypt_table+0xaf8>
    3088:	b58d                	j	2eea <_aes_decrypt_table+0x8b2>
    308a:	5491                	li	s1,-28
    308c:	055d                	addi	a0,a0,23
    308e:	c471                	beqz	s0,315a <_aes_decrypt_table+0xb22>
    3090:	6fd4                	flw	fa3,28(a5)
    3092:	0604                	addi	s1,sp,768
    3094:	ff15                	bnez	a4,2fd0 <_aes_decrypt_table+0x998>
    3096:	5060                	lw	s0,100(s0)
    3098:	981924fb          	0x981924fb
    309c:	97e9                	srai	a5,a5,0x3a
    309e:	bdd6                	fsd	fs5,248(sp)
    30a0:	4089cc43          	fmadd.s	fs8,fs3,fs0,fs0,rmm
    30a4:	779e                	flw	fa5,228(sp)
    30a6:	bd42d967          	0xbd42d967
    30aa:	e8b0                	fsw	fa2,80(s1)
    30ac:	8907888b          	0x8907888b
    30b0:	19e7385b          	0x19e7385b
    30b4:	dbee                	sw	s11,244(sp)
    30b6:	c879                	beqz	s0,318c <_aes_decrypt_table+0xb54>
    30b8:	470a                	lw	a4,128(sp)
    30ba:	7ca1                	lui	s9,0xfffe8
    30bc:	427ce90f          	0x427ce90f
    30c0:	c91e                	sw	t2,144(sp)
    30c2:	84f8                	0x84f8
    30c4:	0000                	unimp
    30c6:	0000                	unimp
    30c8:	8386                	mv	t2,ra
    30ca:	8009                	srli	s0,s0,0x2
    30cc:	48ed                	li	a7,27
    30ce:	2b32                	fld	fs6,264(sp)
    30d0:	ac70                	fsd	fa2,216(s0)
    30d2:	111e                	slli	sp,sp,0x27
    30d4:	4e72                	lw	t3,28(sp)
    30d6:	5a6c                	lw	a1,116(a2)
    30d8:	fbff                	0xfbff
    30da:	0efd                	addi	t4,t4,31
    30dc:	5638                	lw	a4,104(a2)
    30de:	1ed5850f          	0x1ed5850f
    30e2:	ae3d                	j	3420 <_aes_decrypt_table+0xde8>
    30e4:	2739                	jal	37f2 <_aes_encrypt_table+0xba>
    30e6:	2d36                	fld	fs10,328(sp)
    30e8:	64d9                	lui	s1,0x16
    30ea:	0f0a                	slli	t5,t5,0x2
    30ec:	21a6                	fld	ft3,72(sp)
    30ee:	5c68                	lw	a0,124(s0)
    30f0:	d154                	sw	a3,36(a0)
    30f2:	3a2e5b9b          	0x3a2e5b9b
    30f6:	3624                	fld	fs1,104(a2)
    30f8:	0a0cb167          	0xa0cb167
    30fc:	57930fe7          	jalr	t6,1401(t1)
    3100:	d296                	sw	t0,100(sp)
    3102:	eeb4                	fsw	fa3,88(a3)
    3104:	9e91                	0x9e91
    3106:	4fc59b1b          	0x4fc59b1b
    310a:	c080                	sw	s0,0(s1)
    310c:	a220                	fsd	fs0,64(a2)
    310e:	dc61                	beqz	s0,30e6 <_aes_decrypt_table+0xaae>
    3110:	775a694b          	fnmsub.q	fs2,fs4,fs5,fa4,unknown
    3114:	161a                	slli	a2,a2,0x26
    3116:	121c                	addi	a5,sp,288
    3118:	0aba                	slli	s5,s5,0xe
    311a:	93e2                	add	t2,t2,s8
    311c:	e52a                	fsw	fa0,136(sp)
    311e:	a0c0                	fsd	fs0,128(s1)
    3120:	43e0                	lw	s0,68(a5)
    3122:	223c                	fld	fa5,64(a2)
    3124:	1b121d17          	auipc	s10,0x1b121
    3128:	0b0d                	addi	s6,s6,3
    312a:	090e                	slli	s2,s2,0x3
    312c:	8bf2adc7          	fmsub.d	fs11,ft5,ft11,fa7,rdn
    3130:	b9a8                	fsd	fa0,112(a1)
    3132:	b62d                	j	2c5c <_aes_decrypt_table+0x624>
    3134:	c8a9                	beqz	s1,3186 <_aes_decrypt_table+0xb4e>
    3136:	1e14                	addi	a3,sp,816
    3138:	8519                	srai	a0,a0,0x6
    313a:	4c07f157          	0x4c07f157
    313e:	bbdd75af          	0xbbdd75af
    3142:	99ee                	add	s3,s3,s11
    3144:	fd60                	fsw	fs0,124(a0)
    3146:	9f267fa3          	0x9f267fa3
    314a:	bcf501f7          	0xbcf501f7
    314e:	725c                	flw	fa5,36(a2)
    3150:	6644c53b          	0x6644c53b
    3154:	347e                	fld	fs0,504(sp)
    3156:	7629fb5b          	0x7629fb5b
    315a:	dcc6438b          	0xdcc6438b
    315e:	68fc23cb          	fnmsub.s	ft7,fs8,fa5,fa3,rdn
    3162:	edb6                	fsw	fa3,216(sp)
    3164:	63f1                	lui	t2,0x1c
    3166:	e4b8                	fsw	fa4,72(s1)
    3168:	cadc                	sw	a5,20(a3)
    316a:	108531d7          	0x108531d7
    316e:	6342                	flw	ft6,16(sp)
    3170:	4022                	0x4022
    3172:	20119713          	0x20119713
    3176:	c684                	sw	s1,8(a3)
    3178:	7d24                	flw	fs1,120(a0)
    317a:	4a85                	li	s5,1
    317c:	f83d                	bnez	s0,30f2 <_aes_decrypt_table+0xaba>
    317e:	bbd2                	fsd	fs4,496(sp)
    3180:	1132                	slli	sp,sp,0x2c
    3182:	f9ae                	fsw	fa1,240(sp)
    3184:	6da1                	lui	s11,0x8
    3186:	4b2f29c7          	fmsub.d	fs3,ft10,fs2,fs1,rdn
    318a:	9e1d                	0x9e1d
    318c:	f330                	fsw	fa2,96(a4)
    318e:	b2dc                	fsd	fa5,160(a3)
    3190:	ec52                	fsw	fs4,24(sp)
    3192:	860d                	srai	a2,a2,0x3
    3194:	c177d0e3          	bge	a5,s7,2d94 <_aes_decrypt_table+0x75c>
    3198:	6c16                	flw	fs8,68(sp)
    319a:	99b9b32b          	0x99b9b32b
    319e:	70a9                	lui	ra,0xfffea
    31a0:	fa48                	fsw	fa0,52(a2)
    31a2:	9411                	srai	s0,s0,0x24
    31a4:	2264                	fld	fs1,192(a2)
    31a6:	c48ce947          	0xc48ce947
    31aa:	fca8                	fsw	fa0,120(s1)
    31ac:	f0a01a3f 7d56d82c 	0x7d56d82cf0a01a3f
    31b4:	ef90                	fsw	fa2,24(a5)
    31b6:	3322                	fld	ft6,40(sp)
    31b8:	c74e                	sw	s3,140(sp)
    31ba:	c1d14987          	flq	fs3,-995(sp) # 7a0c9c1d <__BSS_END__+0x7a0c41b9>
    31be:	38d9                	jal	2a94 <_aes_decrypt_table+0x45c>
    31c0:	fea2                	fsw	fs0,124(sp)
    31c2:	ca8c                	sw	a1,16(a3)
    31c4:	d498360b          	0xd498360b
    31c8:	cf81                	beqz	a5,31e0 <_aes_decrypt_table+0xba8>
    31ca:	f5a6                	fsw	fs1,232(sp)
    31cc:	28de                	fld	fa7,464(sp)
    31ce:	7aa5                	lui	s5,0xfffe9
    31d0:	268e                	fld	fa3,192(sp)
    31d2:	b7da                	fsd	fs6,488(sp)
    31d4:	ad3fa4bf 3a2ce49d 	0x3a2ce49dad3fa4bf
    31dc:	0d92                	slli	s11,s11,0x4
    31de:	7850                	flw	fa2,52(s0)
    31e0:	9bcc                	0x9bcc
    31e2:	5f6a                	lw	t5,184(sp)
    31e4:	6246                	flw	ft4,80(sp)
    31e6:	7e54                	flw	fa3,60(a2)
    31e8:	8df6c213          	xori	tp,a3,-1825
    31ec:	e8b8                	fsw	fa4,80(s1)
    31ee:	d890                	sw	a2,48(s1)
    31f0:	392e5ef7          	0x392e5ef7
    31f4:	c382f5af          	0xc382f5af
    31f8:	be80                	fsd	fs0,56(a3)
    31fa:	5d9f 7c93 d069      	0xd0697c935d9f
    3200:	a92d                	j	363a <_aes_decrypt_table+0x1002>
    3202:	b312d56f          	jal	a0,fff30d32 <__BSS_END__+0xfff2b2ce>
    3206:	3b9925cf          	fnmadd.d	fa1,fs2,fs9,ft7,rdn
    320a:	acc8                	fsd	fa0,152(s1)
    320c:	a77d                	j	39ba <_aes_encrypt_table+0x282>
    320e:	1810                	addi	a2,sp,48
    3210:	9ce86e63          	bltu	a6,a4,23ec <__call_exitprocs+0x28>
    3214:	3bdb7bbb          	0x3bdb7bbb
    3218:	0978                	addi	a4,sp,156
    321a:	26cd                	jal	35fc <_aes_decrypt_table+0xfc4>
    321c:	f418                	fsw	fa4,40(s0)
    321e:	596e                	lw	s2,248(sp)
    3220:	9aec01b7          	lui	gp,0x9aec0
    3224:	a89a                	fsd	ft6,80(sp)
    3226:	656e4f83          	lbu	t6,1622(t3)
    322a:	95e6                	add	a1,a1,s9
    322c:	7ee6                	flw	ft9,120(sp)
    322e:	ffaa                	fsw	fa0,252(sp)
    3230:	bc2108cf          	0xbc2108cf
    3234:	e6e8                	fsw	fa0,76(a3)
    3236:	d99b15ef          	jal	a1,fffb4fce <__BSS_END__+0xfffaf56a>
    323a:	e7ba                	fsw	fa4,204(sp)
    323c:	ce36                	sw	a3,28(sp)
    323e:	6f4a                	flw	ft10,144(sp)
    3240:	d409                	beqz	s0,314a <_aes_decrypt_table+0xb12>
    3242:	9fea                	add	t6,t6,s10
    3244:	d67c                	sw	a5,108(a2)
    3246:	b029                	j	2a50 <_aes_decrypt_table+0x418>
    3248:	afb2                	fsd	fa2,472(sp)
    324a:	a431                	j	3456 <_aes_decrypt_table+0xe1e>
    324c:	3f2a3123          	0x3f2a3123
    3250:	3094                	fld	fa3,32(s1)
    3252:	a5c6                	fsd	fa7,200(sp)
    3254:	c066                	sw	s9,0(sp)
    3256:	a235                	j	3382 <_aes_decrypt_table+0xd4a>
    3258:	37bc                	fld	fa5,104(a5)
    325a:	4e74                	lw	a3,92(a2)
    325c:	a6ca                	fsd	fs2,328(sp)
    325e:	82fc                	0x82fc
    3260:	b0d0                	fsd	fa2,160(s1)
    3262:	90e0                	0x90e0
    3264:	15d8                	addi	a4,sp,740
    3266:	4a98a733          	0x4a98a733
    326a:	04f1                	addi	s1,s1,28
    326c:	f7da                	fsw	fs6,236(sp)
    326e:	ec41                	bnez	s0,3306 <_aes_decrypt_table+0xcce>
    3270:	0e50                	addi	a2,sp,788
    3272:	cd7f                	0xcd7f
    3274:	2ff6                	fld	ft11,344(sp)
    3276:	8dd69117          	auipc	sp,0x8dd69
    327a:	4d76                	lw	s10,92(sp)
    327c:	4db0                	lw	a2,88(a1)
    327e:	544def43          	0x544def43
    3282:	aacc                	fsd	fa1,144(a3)
    3284:	df04                	sw	s1,56(a4)
    3286:	96e4                	0x96e4
    3288:	e3b5                	bnez	a5,32ec <_aes_decrypt_table+0xcb4>
    328a:	d19e                	sw	t2,224(sp)
    328c:	1b88                	addi	a0,sp,496
    328e:	6a4c                	flw	fa1,20(a2)
    3290:	b81f 2cc1 7f51      	0x7f512cc1b81f
    3296:	6546                	flw	fa0,80(sp)
    3298:	04ea                	slli	s1,s1,0x1a
    329a:	5e9d                	li	t4,-25
    329c:	5d35                	li	s10,-19
    329e:	8c01                	sub	s0,s0,s0
    32a0:	7374                	flw	fa3,100(a4)
    32a2:	87fa                	mv	a5,t5
    32a4:	2e41                	jal	3634 <_aes_decrypt_table+0xffc>
    32a6:	5a1d0bfb          	0x5a1d0bfb
    32aa:	52d267b3          	0x52d267b3
    32ae:	db92                	sw	tp,244(sp)
    32b0:	3356                	fld	ft6,368(sp)
    32b2:	10e9                	addi	ra,ra,-6
    32b4:	d66d1347          	fmsub.q	ft6,fs10,ft6,fs10,rtz
    32b8:	8c61                	and	s0,s0,s0
    32ba:	d79a                	sw	t1,236(sp)
    32bc:	7a0c                	flw	fa1,48(a2)
    32be:	8e14a137          	lui	sp,0x8e14a
    32c2:	f859                	bnez	s0,3258 <_aes_decrypt_table+0xc20>
    32c4:	893c                	0x893c
    32c6:	ee2713eb          	0xee2713eb
    32ca:	a9ce                	fsd	fs3,208(sp)
    32cc:	35c9                	jal	318e <_aes_decrypt_table+0xb56>
    32ce:	ede561b7          	lui	gp,0xede56
    32d2:	1ce1                	addi	s9,s9,-8
    32d4:	3cb1                	jal	2d30 <_aes_decrypt_table+0x6f8>
    32d6:	477a                	lw	a4,156(sp)
    32d8:	59df d29c 3f73      	0x3f73d29c59df
    32de:	f255                	bnez	a2,3282 <_aes_decrypt_table+0xc4a>
    32e0:	79ce                	flw	fs3,240(sp)
    32e2:	1418                	addi	a4,sp,544
    32e4:	c773bf37          	lui	t5,0xc773b
    32e8:	eacd                	bnez	a3,339a <_aes_decrypt_table+0xd62>
    32ea:	5baaf753          	0x5baaf753
    32ee:	fd5f 146f 3ddf      	0x3ddf146ffd5f
    32f4:	447886db          	0x447886db
    32f8:	afca81f3          	0xafca81f3
    32fc:	3ec4                	fld	fs1,184(a3)
    32fe:	68b9                	lui	a7,0xe
    3300:	2c34                	fld	fa3,88(s0)
    3302:	2438                	fld	fa4,72(s0)
    3304:	5f40                	lw	s0,60(a4)
    3306:	a3c2                	fsd	fa6,448(sp)
    3308:	1d1672c3          	0x1d1672c3
    330c:	0c25                	addi	s8,s8,9
    330e:	e2bc                	fsw	fa5,64(a3)
    3310:	8b49                	andi	a4,a4,18
    3312:	3c28                	fld	fa0,120(s0)
    3314:	4195                	li	gp,5
    3316:	0dff                	0xdff
    3318:	7101                	addi	sp,sp,-512
    331a:	a839                	j	3338 <_aes_decrypt_table+0xd00>
    331c:	0c08deb3          	0xc08deb3
    3320:	9ce4                	0x9ce4
    3322:	b4d8                	fsd	fa4,168(s1)
    3324:	90c1                	srli	s1,s1,0x30
    3326:	5664                	lw	s1,108(a2)
    3328:	6184                	flw	fs1,0(a1)
    332a:	70b6cb7b          	0x70b6cb7b
    332e:	32d5                	jal	2d12 <_aes_decrypt_table+0x6da>
    3330:	745c                	flw	fa5,44(s0)
    3332:	6c48                	flw	fa0,28(s0)
    3334:	b8d04257          	0xb8d04257
    3338:	a7f4                	fsd	fa3,200(a5)
    333a:	5150                	lw	a2,36(a0)
    333c:	6541                	lui	a0,0x10
    333e:	a4177e53          	0xa4177e53
    3342:	5e271ac3          	fmadd.q	fs5,fa4,ft2,fa1,rtz
    3346:	3a96                	fld	fs5,352(sp)
    3348:	3bcb6bab          	0x3bcb6bab
    334c:	459d                	li	a1,7
    334e:	1ff1                	addi	t6,t6,-4
    3350:	58fa                	lw	a7,188(sp)
    3352:	03e3acab          	0x3e3acab
    3356:	fa304b93          	xori	s7,zero,-93
    335a:	2055                	jal	33fe <_aes_decrypt_table+0xdc6>
    335c:	6d76                	flw	fs10,92(sp)
    335e:	adf6                	fsd	ft9,216(sp)
    3360:	76cc                	flw	fa1,44(a3)
    3362:	8891                	andi	s1,s1,4
    3364:	4c02                	lw	s8,0(sp)
    3366:	f525                	bnez	a0,32ce <_aes_decrypt_table+0xc96>
    3368:	d7e5                	beqz	a5,3350 <_aes_decrypt_table+0xd18>
    336a:	4ffc                	lw	a5,92(a5)
    336c:	cb2a                	sw	a0,148(sp)
    336e:	4435c5d7          	0x4435c5d7
    3372:	2680                	fld	fs0,8(a3)
    3374:	a362                	fsd	fs8,384(sp)
    3376:	5ab1b58f          	0x5ab1b58f
    337a:	de49                	beqz	a2,3314 <_aes_decrypt_table+0xcdc>
    337c:	1bba                	slli	s7,s7,0x2e
    337e:	0eea2567          	0xeea2567
    3382:	4598                	lw	a4,8(a1)
    3384:	c0fe                	sw	t6,64(sp)
    3386:	5de1                	li	s11,-8
    3388:	c302752f          	0xc302752f
    338c:	f04c                	fsw	fa1,36(s0)
    338e:	8112                	mv	sp,tp
    3390:	9746                	add	a4,a4,a7
    3392:	f9d38da3          	sb	t4,-101(t2) # 1bf9b <__BSS_END__+0x16537>
    3396:	6bc6                	flw	fs7,80(sp)
    3398:	03e75f8f          	0x3e75f8f
    339c:	9c92                	add	s9,s9,tp
    339e:	1595                	addi	a1,a1,-27
    33a0:	7a6d                	lui	s4,0xffffb
    33a2:	5952bfeb          	0x5952bfeb
    33a6:	95da                	add	a1,a1,s6
    33a8:	83be                	mv	t2,a5
    33aa:	d42d                	beqz	s0,3314 <_aes_decrypt_table+0xcdc>
    33ac:	2174                	fld	fa3,192(a0)
    33ae:	69e058d3          	0x69e058d3
    33b2:	4929                	li	s2,10
    33b4:	c8c9                	beqz	s1,3446 <_aes_decrypt_table+0xe0e>
    33b6:	8e44                	0x8e44
    33b8:	89c2                	mv	s3,a6
    33ba:	756a                	flw	fa0,184(sp)
    33bc:	798e                	flw	fs3,224(sp)
    33be:	f478                	fsw	fa4,108(s0)
    33c0:	3e58                	fld	fa4,184(a2)
    33c2:	71b9996b          	0x71b9996b
    33c6:	27dd                	jal	3bac <_aes_encrypt_table+0x474>
    33c8:	4fe1                	li	t6,24
    33ca:	beb6                	fsd	fa3,376(sp)
    33cc:	ad88                	fsd	fa0,24(a1)
    33ce:	ac20f017          	auipc	zero,0xac20f
    33d2:	c966                	sw	s9,144(sp)
    33d4:	3ace                	fld	fs5,240(sp)
    33d6:	7db4                	flw	fa3,120(a1)
    33d8:	4adf 6318 311a      	0x311a63184adf
    33de:	e582                	fsw	ft0,200(sp)
    33e0:	3351                	jal	3164 <_aes_decrypt_table+0xb2c>
    33e2:	9760                	0x9760
    33e4:	62457f53          	0x62457f53
    33e8:	7764                	flw	fs1,108(a4)
    33ea:	b1e0                	fsd	fs0,224(a1)
    33ec:	bb84ae6b          	0xbb84ae6b
    33f0:	a081                	j	3430 <_aes_decrypt_table+0xdf8>
    33f2:	fe1c                	fsw	fa5,56(a2)
    33f4:	2b08                	fld	fa0,16(a4)
    33f6:	f994                	fsw	fa3,48(a1)
    33f8:	6848                	flw	fa0,20(s0)
    33fa:	7058                	flw	fa4,36(s0)
    33fc:	fd45                	bnez	a0,33b4 <_aes_decrypt_table+0xd7c>
    33fe:	8f19                	sub	a4,a4,a4
    3400:	6cde                	flw	fs9,212(sp)
    3402:	f87b9487          	0xf87b9487
    3406:	d37352b7          	lui	t0,0xd3735
    340a:	024bab23          	sw	tp,54(s7)
    340e:	72e2                	flw	ft5,56(sp)
    3410:	8f1f e357 ab55      	0xab55e3578f1f
    3416:	662a                	flw	fa2,136(sp)
    3418:	b20728eb          	0xb20728eb
    341c:	c2b5                	beqz	a3,3480 <_aes_decrypt_table+0xe48>
    341e:	7bc52f03          	lw	t5,1980(a0) # 107bc <__BSS_END__+0xad58>
    3422:	869a                	mv	a3,t1
    3424:	d3a50837          	lui	a6,0xd3a50
    3428:	8728                	0x8728
    342a:	30f2                	fld	ft1,312(sp)
    342c:	23b2a5bf 02ba6a03 	0x2ba6a0323b2a5bf
    3434:	8216                	mv	tp,t0
    3436:	ed5c                	fsw	fa5,28(a0)
    3438:	8a2b1ccf          	fnmadd.d	fs9,fs6,ft2,fa7,rtz
    343c:	b479                	j	2eca <_aes_decrypt_table+0x892>
    343e:	a792                	fsd	ft4,456(sp)
    3440:	f3f0f207          	0xf3f0f207
    3444:	e269                	bnez	a2,3506 <_aes_decrypt_table+0xece>
    3446:	4ea1                	li	t4,8
    3448:	f4da                	fsw	fs6,104(sp)
    344a:	65cd                	lui	a1,0x13
    344c:	be05                	j	2f7c <_aes_decrypt_table+0x944>
    344e:	06d5                	addi	a3,a3,21
    3450:	6234                	flw	fa3,64(a2)
    3452:	d11f fea6 c48a      	0xc48afea6d11f
    3458:	532e                	lw	t1,232(sp)
    345a:	349d                	jal	2ec0 <_aes_decrypt_table+0x888>
    345c:	a2a055f3          	csrrwi	a1,0xa2a,0
    3460:	e18a                	fsw	ft2,192(sp)
    3462:	0532                	slli	a0,a0,0xc
    3464:	ebf6                	fsw	ft9,212(sp)
    3466:	a475                	j	3712 <_aes_decrypt_table+0x10da>
    3468:	0b39ec83          	0xb39ec83
    346c:	ef60                	fsw	fs0,92(a4)
    346e:	40aa                	lw	ra,136(sp)
    3470:	9f71                	0x9f71
    3472:	5e06                	lw	t3,96(sp)
    3474:	106e                	c.slli	zero,0x3b
    3476:	bd51                	j	330a <_aes_decrypt_table+0xcd2>
    3478:	8a21                	andi	a2,a2,8
    347a:	3ef9                	jal	3058 <_aes_decrypt_table+0xa20>
    347c:	06dd                	addi	a3,a3,23
    347e:	963d                	srai	a2,a2,0x2f
    3480:	053e                	slli	a0,a0,0xf
    3482:	ddae                	sw	a1,248(sp)
    3484:	bde6                	fsd	fs9,248(sp)
    3486:	4d46                	lw	s10,80(sp)
    3488:	8d54                	0x8d54
    348a:	91b5                	srli	a1,a1,0x2d
    348c:	5dc4                	lw	s1,60(a1)
    348e:	7105                	addi	sp,sp,-480
    3490:	d406                	sw	ra,40(sp)
    3492:	1550046f          	jal	s0,3de6 <_aes_encrypt_table+0x6ae>
    3496:	60ff                	0x60ff
    3498:	fb98                	fsw	fa4,48(a5)
    349a:	1924                	addi	s1,sp,184
    349c:	e9bd                	bnez	a1,3512 <_aes_decrypt_table+0xeda>
    349e:	4340d697          	auipc	a3,0x4340d
    34a2:	89cc                	0x89cc
    34a4:	9ed9                	0x9ed9
    34a6:	42e86777          	0x42e86777
    34aa:	b0bd                	j	2d18 <_aes_decrypt_table+0x6e0>
    34ac:	8b89                	andi	a5,a5,2
    34ae:	0788                	addi	a0,sp,960
    34b0:	5b19                	li	s6,-26
    34b2:	e738                	fsw	fa4,72(a4)
    34b4:	eec8                	fsw	fa0,28(a3)
    34b6:	0a7c79db          	0xa7c79db
    34ba:	0f42a147          	fmsub.q	ft2,ft5,fs4,ft1,rdn
    34be:	7ce9                	lui	s9,0xffffa
    34c0:	1e84                	addi	s1,sp,880
    34c2:	f8c9                	bnez	s1,3454 <_aes_decrypt_table+0xe1c>
    34c4:	0000                	unimp
    34c6:	0000                	unimp
    34c8:	8680                	0x8680
    34ca:	ed2b0983          	lb	s3,-302(s6) # ffff7ed2 <__BSS_END__+0xffff246e>
    34ce:	3248                	fld	fa0,160(a2)
    34d0:	7011                	c.lui	zero,0xfffe4
    34d2:	1eac                	addi	a1,sp,888
    34d4:	725a                	flw	ft4,180(sp)
    34d6:	6c4e                	flw	fs8,208(sp)
    34d8:	ff0e                	fsw	ft3,188(sp)
    34da:	3885fdfb          	0x3885fdfb
    34de:	0f56                	slli	t5,t5,0x15
    34e0:	d5ae                	sw	a1,232(sp)
    34e2:	3d1e                	fld	fs10,480(sp)
    34e4:	392d                	jal	311e <_aes_decrypt_table+0xae6>
    34e6:	d90f3627          	fsd	fa6,-628(t5) # c773ad8c <__BSS_END__+0xc7735328>
    34ea:	0a64                	addi	s1,sp,284
    34ec:	a65c                	fsd	fa5,136(a2)
    34ee:	6821                	lui	a6,0x8
    34f0:	9bd1545b          	0x9bd1545b
    34f4:	2e36                	fld	ft8,328(sp)
    34f6:	243a                	fld	fs0,392(sp)
    34f8:	670a                	flw	fa4,128(sp)
    34fa:	0cb1                	addi	s9,s9,12
    34fc:	930fe757          	0x930fe757
    3500:	96ee                	add	a3,a3,s11
    3502:	b4d2                	fsd	fs4,104(sp)
    3504:	1b9e919b          	0x1b9e919b
    3508:	c5c0                	sw	s0,12(a1)
    350a:	20dc804f          	fnmadd.s	ft0,fs9,fa3,ft4,rne
    350e:	61a2                	flw	ft3,8(sp)
    3510:	5a694b77          	0x5a694b77
    3514:	1a12                	slli	s4,s4,0x24
    3516:	1c16                	slli	s8,s8,0x25
    3518:	e20aba93          	sltiu	s5,s5,-480
    351c:	2aa0                	fld	fs0,80(a3)
    351e:	c0e5                	beqz	s1,35fe <_aes_decrypt_table+0xfc6>
    3520:	e022                	fsw	fs0,0(sp)
    3522:	171b3c43          	fmadd.q	fs8,fs6,fa7,ft2,rup
    3526:	121d                	addi	tp,tp,-25
    3528:	0d09                	addi	s10,s10,2
    352a:	c78b0e0b          	0xc78b0e0b
    352e:	f2ad                	bnez	a3,3490 <_aes_decrypt_table+0xe58>
    3530:	a8b6                	fsd	fa3,80(sp)
    3532:	2db9                	jal	3b90 <_aes_encrypt_table+0x458>
    3534:	a91e                	fsd	ft7,144(sp)
    3536:	14c8                	addi	a0,sp,612
    3538:	19f1                	addi	s3,s3,-4
    353a:	5785                	li	a5,-31
    353c:	0775                	addi	a4,a4,29
    353e:	af4c                	fsd	fa1,152(a4)
    3540:	dd99                	beqz	a1,345e <_aes_decrypt_table+0xe26>
    3542:	607feebb          	0x607feebb
    3546:	a3fd                	j	3b34 <_aes_encrypt_table+0x3fc>
    3548:	2601                	jal	3848 <_aes_encrypt_table+0x110>
    354a:	f79f f572 5cbc      	0x5cbcf572f79f
    3550:	3b66                	fld	fs6,120(sp)
    3552:	44c5                	li	s1,17
    3554:	5b347efb          	0x5b347efb
    3558:	8b762943          	fmadd.d	fs2,fa2,fs7,fa7,rdn
    355c:	cbdcc623          	0xcbdcc623
    3560:	fced                	bnez	s1,355a <_aes_decrypt_table+0xf22>
    3562:	b668                	fsd	fa0,232(a2)
    3564:	f1e4                	fsw	fs1,100(a1)
    3566:	dc31b863          	0xdc31b863
    356a:	d7ca                	sw	s2,236(sp)
    356c:	42108563          	beq	ra,ra,3996 <_aes_encrypt_table+0x25e>
    3570:	13402297          	auipc	t0,0x13402
    3574:	11c6                	slli	gp,gp,0x31
    3576:	8420                	0x8420
    3578:	244a                	fld	fs0,144(sp)
    357a:	857d                	srai	a0,a0,0x1f
    357c:	d2f83dbb          	0xd2f83dbb
    3580:	32f9                	jal	2f4e <_aes_decrypt_table+0x916>
    3582:	ae11                	j	3896 <_aes_encrypt_table+0x15e>
    3584:	a129                	j	398e <_aes_encrypt_table+0x256>
    3586:	c76d                	beqz	a4,3670 <_aes_decrypt_table+0x1038>
    3588:	2f9e                	fld	ft11,448(sp)
    358a:	30b21d4b          	fnmsub.s	fs10,ft4,fa1,ft6,rtz
    358e:	5286dcf3          	csrrwi	s9,0x528,13
    3592:	0dec                	addi	a1,sp,732
    3594:	e3c1                	bnez	a5,3614 <_aes_decrypt_table+0xfdc>
    3596:	77d0                	flw	fa2,44(a5)
    3598:	2b6c16b3          	0x2b6c16b3
    359c:	b970                	fsd	fa2,240(a0)
    359e:	a999                	j	39f4 <_aes_encrypt_table+0x2bc>
    35a0:	4894                	lw	a3,16(s1)
    35a2:	11fa                	slli	gp,gp,0x3e
    35a4:	64e9                	lui	s1,0x1a
    35a6:	4722                	lw	a4,8(sp)
    35a8:	8cfc                	0x8cfc
    35aa:	a8c4                	fsd	fs1,144(s1)
    35ac:	3ff0                	fld	fa2,248(a5)
    35ae:	a01a                	fsd	ft6,0(sp)
    35b0:	2c7d                	jal	386e <_aes_encrypt_table+0x136>
    35b2:	56d8                	lw	a4,44(a3)
    35b4:	22ef9033          	0x22ef9033
    35b8:	4e49                	li	t3,18
    35ba:	d13887c7          	fmsub.s	fa5,fa7,fs3,fs10,rne
    35be:	d9c1                	beqz	a1,354e <_aes_decrypt_table+0xf16>
    35c0:	a2ca                	fsd	fs2,320(sp)
    35c2:	8cfe                	mv	s9,t6
    35c4:	0bd4                	addi	a3,sp,468
    35c6:	9836                	add	a6,a6,a3
    35c8:	81f5                	srli	a1,a1,0x1d
    35ca:	de7aa6cf          	fnmadd.q	fa3,fs5,ft7,fs11,rdn
    35ce:	a528                	fsd	fa0,72(a0)
    35d0:	da268eb7          	lui	t4,0xda268
    35d4:	bfad                	j	354e <_aes_decrypt_table+0xf16>
    35d6:	3fa4                	fld	fs1,120(a5)
    35d8:	9d3a                	add	s10,s10,a4
    35da:	2ce4                	fld	fs1,216(s1)
    35dc:	9278                	0x9278
    35de:	500d                	c.li	zero,-29
    35e0:	cc5f 6a9b 467e      	0x467e6a9bcc5f
    35e6:	5462                	lw	s0,56(sp)
    35e8:	138d                	addi	t2,t2,-29
    35ea:	f6c2                	fsw	fa6,108(sp)
    35ec:	b8d8                	fsd	fa4,176(s1)
    35ee:	90e8                	0x90e8
    35f0:	f739                	bnez	a4,353e <_aes_decrypt_table+0xf06>
    35f2:	2e5e                	fld	ft8,464(sp)
    35f4:	82f5afc3          	fmadd.d	ft11,fa1,fa5,fa6,rdn
    35f8:	805d                	srli	s0,s0,0x17
    35fa:	9fbe                	add	t6,t6,a5
    35fc:	93d0                	0x93d0
    35fe:	697c                	flw	fa5,84(a0)
    3600:	2dd5                	jal	3cf4 <_aes_encrypt_table+0x5bc>
    3602:	6fa9                	lui	t6,0xa
    3604:	1225                	addi	tp,tp,-23
    3606:	99accfb3          	0x99accfb3
    360a:	7d18c83b          	0x7d18c83b
    360e:	639c10a7          	0x639c10a7
    3612:	e86e                	fsw	fs11,16(sp)
    3614:	db7bbb3b          	0xdb7bbb3b
    3618:	7826                	flw	fa6,104(sp)
    361a:	cd09                	beqz	a0,3634 <_aes_decrypt_table+0xffc>
    361c:	1859                	addi	a6,a6,-10
    361e:	6ef4                	flw	fa3,92(a3)
    3620:	b79a                	fsd	ft6,488(sp)
    3622:	ec01                	bnez	s0,363a <_aes_decrypt_table+0x1002>
    3624:	83a89a4f          	fnmadd.d	fs4,fa7,fs10,fa6,rtz
    3628:	6e95                	lui	t4,0x5
    362a:	e665                	bnez	a2,3712 <_aes_decrypt_table+0x10da>
    362c:	e6ff                	0xe6ff
    362e:	aa7e                	fsd	ft11,272(sp)
    3630:	cfbc                	sw	a5,88(a5)
    3632:	2108                	fld	fa0,0(a0)
    3634:	e815                	bnez	s0,3668 <_aes_decrypt_table+0x1030>
    3636:	efe6                	fsw	fs9,220(sp)
    3638:	bad99be7          	0xbad99be7
    363c:	4ace366f          	jal	a2,e6ae8 <__BSS_END__+0xe1084>
    3640:	099f ead4 7cb0      	0x7cb0ead4099f
    3646:	29d6                	fld	fs3,336(sp)
    3648:	b2a4                	fsd	fs1,96(a3)
    364a:	233f31af          	0x233f31af
    364e:	2a31                	jal	376a <_aes_encrypt_table+0x32>
    3650:	94a5                	srai	s1,s1,0x29
    3652:	c630                	sw	a2,72(a2)
    3654:	66a2                	flw	fa3,8(sp)
    3656:	35c0                	fld	fs0,168(a1)
    3658:	bc4e                	fsd	fs3,56(sp)
    365a:	ca827437          	lui	s0,0xca827
    365e:	fca6                	fsw	fs1,120(sp)
    3660:	d090                	sw	a2,32(s1)
    3662:	e0b0                	fsw	fa2,64(s1)
    3664:	3315d8a7          	0x3315d8a7
    3668:	9804                	0x9804
    366a:	f14a                	fsw	fs2,160(sp)
    366c:	daec                	sw	a1,116(a3)
    366e:	50cd41f7          	0x50cd41f7
    3672:	7f0e                	flw	ft10,224(sp)
    3674:	f691                	bnez	a3,3580 <_aes_decrypt_table+0xf48>
    3676:	d64d172f          	0xd64d172f
    367a:	768d                	lui	a3,0xfffe3
    367c:	434db0ef          	jal	ra,deab0 <__BSS_END__+0xd904c>
    3680:	4daa                	lw	s11,136(sp)
    3682:	cc54                	sw	a3,28(s0)
    3684:	0496                	slli	s1,s1,0x5
    3686:	e4df b5d1 9ee3      	0x9ee3b5d1e4df
    368c:	886a                	mv	a6,s10
    368e:	1f2c4c1b          	0x1f2c4c1b
    3692:	c1b8                	sw	a4,64(a1)
    3694:	5165                	li	sp,-7
    3696:	467f                	0x467f
    3698:	ea5e                	fsw	fs7,20(sp)
    369a:	9d04                	0x9d04
    369c:	358c                	fld	fa1,40(a1)
    369e:	015d                	addi	sp,sp,23
    36a0:	fa737487          	0xfa737487
    36a4:	fb2e410b          	0xfb2e410b
    36a8:	b35a1d67          	0xb35a1d67
    36ac:	9252d2db          	0x9252d2db
    36b0:	5610                	lw	a2,40(a2)
    36b2:	47d6e933          	0x47d6e933
    36b6:	61d76d13          	ori	s10,a4,1565
    36ba:	9a8c                	0x9a8c
    36bc:	0ca1                	addi	s9,s9,8
    36be:	377a                	fld	fa4,440(sp)
    36c0:	14f8                	addi	a4,sp,620
    36c2:	598e                	lw	s3,224(sp)
    36c4:	eb893c13          	sltiu	s8,s2,-328
    36c8:	27a9                	jal	3e12 <_aes_encrypt_table+0x6da>
    36ca:	ceee                	sw	s11,92(sp)
    36cc:	c961                	beqz	a0,379c <_aes_encrypt_table+0x64>
    36ce:	b735                	j	35fa <_aes_decrypt_table+0xfc2>
    36d0:	e51c                	fsw	fa5,8(a0)
    36d2:	e1ed                	bnez	a1,37b4 <_aes_encrypt_table+0x7c>
    36d4:	7a3cb147          	fmsub.d	ft2,fs9,ft3,fa5,rup
    36d8:	dfd2                	sw	s4,252(sp)
    36da:	9c59                	0x9c59
    36dc:	73f2                	flw	ft7,60(sp)
    36de:	ce14553f 37c71879 	0x37c71879ce14553f
    36e6:	cdf773bf aafd53ea 	0xaafd53eacdf773bf
    36ee:	6f3d5f5b          	0x6f3d5f5b
    36f2:	df14                	sw	a3,56(a4)
    36f4:	db44                	sw	s1,52(a4)
    36f6:	7886                	flw	fa7,96(sp)
    36f8:	ca81f3af          	0xca81f3af
    36fc:	c468                	sw	a0,76(s0)
    36fe:	b93e                	fsd	fa5,176(sp)
    3700:	3424                	fld	fs1,104(s0)
    3702:	382c                	fld	fa1,112(s0)
    3704:	c25f40a3          	0xc25f40a3
    3708:	c31d                	beqz	a4,372e <_aes_decrypt_table+0x10f6>
    370a:	1672                	slli	a2,a2,0x3c
    370c:	25e2                	fld	fa1,24(sp)
    370e:	bc0c                	fsd	fa1,56(s0)
    3710:	493c                	lw	a5,80(a0)
    3712:	950d288b          	0x950d288b
    3716:	ff41                	bnez	a4,36ae <_aes_decrypt_table+0x1076>
    3718:	01a8                	addi	a0,sp,200
    371a:	3971                	jal	33b6 <_aes_decrypt_table+0xd7e>
    371c:	b30c                	fsd	fa1,32(a4)
    371e:	08de                	slli	a7,a7,0x17
    3720:	e4b4                	fsw	fa3,72(s1)
    3722:	d89c                	sw	a5,48(s1)
    3724:	c156                	sw	s5,128(sp)
    3726:	6490                	flw	fa2,8(s1)
    3728:	7b6184cb          	fnmsub.d	fs1,ft3,fs6,fa5,rne
    372c:	b632                	fsd	fa2,296(sp)
    372e:	d570                	sw	a2,108(a0)
    3730:	5c6c                	lw	a1,124(s0)
    3732:	4874                	lw	a3,84(s0)
    3734:	57b8                	lw	a4,104(a5)
    3736:	d042                	sw	a6,32(sp)

00003738 <_aes_encrypt_table>:
    3738:	7b777c63          	bgeu	a4,s7,3ef0 <_aes_encrypt_table+0x7b8>
    373c:	6bf2                	flw	fs7,28(sp)
    373e:	0130c56f          	jal	a0,ff50 <__BSS_END__+0xa4ec>
    3742:	d7fe2b67          	0xd7fe2b67
    3746:	82ca76ab          	0x82ca76ab
    374a:	7dc9                	lui	s11,0xffff2
    374c:	59fa                	lw	s3,188(sp)
    374e:	d4adf047          	0xd4adf047
    3752:	afa2                	fsd	fs0,472(sp)
    3754:	a49c                	fsd	fa5,8(s1)
    3756:	c072                	sw	t3,0(sp)
    3758:	2693fdb7          	lui	s11,0x2693f
    375c:	3f36                	fld	ft10,360(sp)
    375e:	a534ccf7          	0xa534ccf7
    3762:	f1e5                	bnez	a1,3742 <_aes_encrypt_table+0xa>
    3764:	d871                	beqz	s0,3738 <_aes_encrypt_table>
    3766:	1531                	addi	a0,a0,-20
    3768:	c704                	sw	s1,8(a4)
    376a:	9618c323          	0x9618c323
    376e:	9a05                	andi	a2,a2,-31
    3770:	e2801207          	0xe2801207
    3774:	75b227eb          	0x75b227eb
    3778:	8309                	srli	a4,a4,0x2
    377a:	1a2c                	addi	a1,sp,312
    377c:	a05a6e1b          	0xa05a6e1b
    3780:	3b52                	fld	fs6,304(sp)
    3782:	b3d6                	fsd	fs5,480(sp)
    3784:	e329                	bnez	a4,37c6 <_aes_encrypt_table+0x8e>
    3786:	d153842f          	0xd153842f
    378a:	ed00                	fsw	fs0,24(a0)
    378c:	fc20                	fsw	fs0,120(s0)
    378e:	5bb1                	li	s7,-20
    3790:	cb6a                	sw	s10,148(sp)
    3792:	39be                	fld	fs3,488(sp)
    3794:	4c4a                	lw	s8,144(sp)
    3796:	cf58                	sw	a4,28(a4)
    3798:	efd0                	fsw	fa2,28(a5)
    379a:	fbaa                	fsw	fa0,244(sp)
    379c:	85334d43          	0x85334d43
    37a0:	f945                	bnez	a0,3750 <_aes_encrypt_table+0x18>
    37a2:	7f02                	flw	ft10,32(sp)
    37a4:	3c50                	fld	fa2,184(s0)
    37a6:	a89f a351 8f40      	0x8f40a351a89f
    37ac:	9d92                	add	s11,s11,tp
    37ae:	f538                	fsw	fa4,104(a0)
    37b0:	b6bc                	fsd	fa5,104(a3)
    37b2:	21da                	fld	ft3,400(sp)
    37b4:	ff10                	fsw	fa2,56(a4)
    37b6:	0ccdd2f3          	csrrwi	t0,0xcc,27
    37ba:	975fec13          	ori	s8,t6,-1675
    37be:	1744                	addi	s1,sp,932
    37c0:	a7c4                	fsd	fs1,136(a5)
    37c2:	3d7e                	fld	fs10,504(sp)
    37c4:	5d64                	lw	s1,124(a0)
    37c6:	7319                	lui	t1,0xfffe6
    37c8:	8160                	0x8160
    37ca:	2a22dc4f          	fnmadd.d	fs8,ft5,ft2,ft5,unknown
    37ce:	8890                	0x8890
    37d0:	ee46                	fsw	fa7,28(sp)
    37d2:	14b8                	addi	a4,sp,616
    37d4:	5ede                	lw	t4,244(sp)
    37d6:	32e0db0b          	0x32e0db0b
    37da:	0a3a                	slli	s4,s4,0xe
    37dc:	0649                	addi	a2,a2,18
    37de:	5c24                	lw	s1,120(s0)
    37e0:	d3c2                	sw	a6,228(sp)
    37e2:	62ac                	flw	fa1,64(a3)
    37e4:	9591                	srai	a1,a1,0x24
    37e6:	79e4                	flw	fs1,116(a1)
    37e8:	6d37c8e7          	0x6d37c8e7
    37ec:	d58d                	beqz	a1,3716 <_aes_decrypt_table+0x10de>
    37ee:	a94e                	fsd	fs3,144(sp)
    37f0:	566c                	lw	a1,108(a2)
    37f2:	eaf4                	fsw	fa3,84(a3)
    37f4:	7a65                	lui	s4,0xffff9
    37f6:	08ae                	slli	a7,a7,0xb
    37f8:	78ba                	flw	fa7,172(sp)
    37fa:	2e25                	jal	3b32 <_aes_encrypt_table+0x3fa>
    37fc:	a61c                	fsd	fa5,8(a2)
    37fe:	c6b4                	sw	a3,72(a3)
    3800:	dde8                	sw	a0,124(a1)
    3802:	1f74                	addi	a3,sp,956
    3804:	8a8bbd4b          	fnmsub.d	fs10,fs7,fs0,fa7,rup
    3808:	3e70                	fld	fa2,248(a2)
    380a:	66b5                	lui	a3,0xd
    380c:	0348                	addi	a0,sp,388
    380e:	0ef6                	slli	t4,t4,0x1d
    3810:	3561                	jal	3698 <_aes_decrypt_table+0x1060>
    3812:	c186b957          	0xc186b957
    3816:	9e1d                	0x9e1d
    3818:	f8e1                	bnez	s1,37e8 <_aes_encrypt_table+0xb0>
    381a:	1198                	addi	a4,sp,224
    381c:	d969                	beqz	a0,37ee <_aes_encrypt_table+0xb6>
    381e:	948e                	add	s1,s1,gp
    3820:	e9871e9b          	0xe9871e9b
    3824:	55ce                	lw	a1,240(sp)
    3826:	df28                	sw	a0,120(a4)
    3828:	a18c                	fsd	fa1,0(a1)
    382a:	0d89                	addi	s11,s11,2
    382c:	6842e6bf 0f2d9941 	0xf2d99416842e6bf
    3834:	54b0                	lw	a2,104(s1)
    3836:	63c616bb          	0x63c616bb
    383a:	7cf8a563          	0x7cf8a563
    383e:	847c                	0x847c
    3840:	77ee                	flw	fa5,248(sp)
    3842:	7bf69977          	0x7bf69977
    3846:	f2ff8d7b          	0xf2ff8d7b
    384a:	0df2                	slli	s11,s11,0x1c
    384c:	6bd6                	flw	fs7,84(sp)
    384e:	6fdebd6b          	0x6fdebd6b
    3852:	c591b16f          	jal	sp,fff1f4aa <__BSS_END__+0xfff19a46>
    3856:	54c5                	li	s1,-15
    3858:	3060                	fld	fs0,224(s0)
    385a:	5030                	lw	a2,96(s0)
    385c:	0102                	c.slli64	sp
    385e:	0301                	addi	t1,t1,0
    3860:	67ce                	flw	fa5,208(sp)
    3862:	2b56a967          	0x2b56a967
    3866:	fee77d2b          	0xfee77d2b
    386a:	19fe                	slli	s3,s3,0x3f
    386c:	d7b5                	beqz	a5,37d8 <_aes_encrypt_table+0xa0>
    386e:	ab4d62d7          	0xab4d62d7
    3872:	76ece6ab          	0x76ece6ab
    3876:	9a76                	add	s4,s4,t4
    3878:	45caca8f          	0x45caca8f
    387c:	821f 9d82 c989      	0xc9899d82821f
    3882:	40c9                	li	ra,18
    3884:	7dfa                	flw	fs11,188(sp)
    3886:	877d                	srai	a4,a4,0x1f
    3888:	15fafaef          	jal	s5,b31e6 <__BSS_END__+0xad782>
    388c:	59b2                	lw	s3,44(sp)
    388e:	eb59                	bnez	a4,3924 <_aes_encrypt_table+0x1ec>
    3890:	478e                	lw	a5,192(sp)
    3892:	f0fbc947          	fmsub.s	fs2,fs7,fa5,ft10,rmm
    3896:	0bf0                	addi	a2,sp,476
    3898:	ad41                	j	3f28 <_aes_encrypt_table+0x7f0>
    389a:	ecad                	bnez	s1,3914 <_aes_encrypt_table+0x1dc>
    389c:	67d4d4b3          	0x67d4d4b3
    38a0:	a25f fda2 af45      	0xaf45fda2a25f
    38a6:	9c23eaaf          	0x9c23eaaf
    38aa:	bf9c                	fsd	fa5,56(a5)
    38ac:	f7a4a453          	0xf7a4a453
    38b0:	72e4                	flw	fs1,100(a3)
    38b2:	9672                	add	a2,a2,t3
    38b4:	5bc0c09b          	0x5bc0c09b
    38b8:	b775                	j	3864 <_aes_encrypt_table+0x12c>
    38ba:	fde1c2b7          	lui	t0,0xfde1c
    38be:	1cfd                	addi	s9,s9,-1
    38c0:	933d                	srli	a4,a4,0x2f
    38c2:	264cae93          	slti	t4,s9,612
    38c6:	6a26                	flw	fs4,72(sp)
    38c8:	366c                	fld	fa1,232(a2)
    38ca:	5a36                	lw	s4,108(sp)
    38cc:	3f7e                	fld	ft10,504(sp)
    38ce:	f7f5413f cc8302f7 	0xcc8302f7f7f5413f
    38d6:	4fcc                	lw	a1,28(a5)
    38d8:	3468                	fld	fa0,232(s0)
    38da:	5c34                	lw	a3,120(s0)
    38dc:	a551                	j	3f60 <_aes_encrypt_table+0x828>
    38de:	f4a5                	bnez	s1,3846 <_aes_encrypt_table+0x10e>
    38e0:	e5d1                	bnez	a1,396c <_aes_encrypt_table+0x234>
    38e2:	34e5                	jal	33ca <_aes_decrypt_table+0xd92>
    38e4:	f1f9                	bnez	a1,38aa <_aes_encrypt_table+0x172>
    38e6:	08f1                	addi	a7,a7,28
    38e8:	71e2                	flw	ft3,56(sp)
    38ea:	9371                	srli	a4,a4,0x3c
    38ec:	73d8d8ab          	0x73d8d8ab
    38f0:	3162                	fld	ft2,56(sp)
    38f2:	5331                	li	t1,-20
    38f4:	152a                	slli	a0,a0,0x2a
    38f6:	3f15                	jal	382a <_aes_encrypt_table+0xf2>
    38f8:	0408                	addi	a0,sp,512
    38fa:	0c04                	addi	s1,sp,528
    38fc:	c795                	beqz	a5,3928 <_aes_encrypt_table+0x1f0>
    38fe:	234652c7          	fmsub.d	ft5,fa2,fs4,ft4,unknown
    3902:	c39d6523          	0xc39d6523
    3906:	18305ec3          	fmadd.s	ft9,ft0,ft3,ft3,unknown
    390a:	2818                	fld	fa4,16(s0)
    390c:	a1969637          	lui	a2,0xa1969
    3910:	050a                	slli	a0,a0,0x2
    3912:	0f05                	addi	t5,t5,1
    3914:	b59a9a2f          	0xb59a9a2f
    3918:	070e                	slli	a4,a4,0x3
    391a:	12240907          	0x12240907
    391e:	3612                	fld	fa2,288(sp)
    3920:	9b80801b          	0x9b80801b
    3924:	e2df 3de2 ebcd      	0xebcd3de2e2df
    392a:	274e26eb          	0x274e26eb
    392e:	b27f6927          	0xb27f6927
    3932:	cdb2                	sw	a2,216(sp)
    3934:	75ea                	flw	fa1,184(sp)
    3936:	9f75                	0x9f75
    3938:	0912                	slli	s2,s2,0x4
    393a:	1b09                	addi	s6,s6,-30
    393c:	831d                	srli	a4,a4,0x7
    393e:	2c589e83          	lh	t4,709(a7) # e2c5 <__BSS_END__+0x8861>
    3942:	742c                	flw	fa1,104(s0)
    3944:	1a34                	addi	a3,sp,312
    3946:	2e1a                	fld	ft8,384(sp)
    3948:	1b36                	slli	s6,s6,0x2d
    394a:	6edc2d1b          	0x6edc2d1b
    394e:	b26e                	fsd	fs11,288(sp)
    3950:	5ab4                	lw	a3,112(a3)
    3952:	ee5a                	fsw	fs6,28(sp)
    3954:	fba0a05b          	0xfba0a05b
    3958:	52a4                	lw	s1,96(a3)
    395a:	f652                	fsw	fs4,44(sp)
    395c:	3b76                	fld	fs6,376(sp)
    395e:	d6b74d3b          	0xd6b74d3b
    3962:	61d6                	flw	ft3,84(sp)
    3964:	b37d                	j	3712 <_aes_decrypt_table+0x10da>
    3966:	2952ceb3          	0x2952ceb3
    396a:	7b29                	lui	s6,0xfffea
    396c:	e3dd                	bnez	a5,3a12 <_aes_encrypt_table+0x2da>
    396e:	2f5e3ee3          	0x2f5e3ee3
    3972:	8413712f          	0x8413712f
    3976:	9784                	0x9784
    3978:	53a6                	lw	t2,104(sp)
    397a:	d1b9f553          	0xd1b9f553
    397e:	68d1                	lui	a7,0x14
    3980:	0000                	unimp
    3982:	0000                	unimp
    3984:	edc1                	bnez	a1,3a1c <_aes_encrypt_table+0x2e4>
    3986:	2ced                	jal	3c80 <_aes_encrypt_table+0x548>
    3988:	2040                	fld	fs0,128(s0)
    398a:	6020                	flw	fs0,64(s0)
    398c:	1ffcfce3          	bgeu	s9,t6,4384 <_aes_encrypt_table+0xc4c>
    3990:	b179                	j	361e <_aes_decrypt_table+0xfe6>
    3992:	c8b1                	beqz	s1,39e6 <_aes_encrypt_table+0x2ae>
    3994:	5bb6                	lw	s7,108(sp)
    3996:	6ad4ed5b          	0x6ad4ed5b
    399a:	be6a                	fsd	fs10,312(sp)
    399c:	cb8d                	beqz	a5,39ce <_aes_encrypt_table+0x296>
    399e:	be6746cb          	fnmsub.q	fa3,fa4,ft6,fs7,rmm
    39a2:	d9be                	sw	a5,240(sp)
    39a4:	3972                	fld	fs2,312(sp)
    39a6:	4b39                	li	s6,14
    39a8:	4a94                	lw	a3,16(a3)
    39aa:	de4a                	sw	s2,60(sp)
    39ac:	4c98                	lw	a4,24(s1)
    39ae:	d44c                	sw	a1,44(s0)
    39b0:	58b0                	lw	a2,112(s1)
    39b2:	e858                	fsw	fa4,20(s0)
    39b4:	cf85                	beqz	a5,39ec <_aes_encrypt_table+0x2b4>
    39b6:	d0bb4acf          	fnmadd.s	fs5,fs6,fa1,fs10,rmm
    39ba:	6bd0                	flw	fa2,20(a5)
    39bc:	efc5                	bnez	a5,3a74 <_aes_encrypt_table+0x33c>
    39be:	aa4f2aef          	jal	s5,ffff5c62 <__BSS_END__+0xffff01fe>
    39c2:	e5aa                	fsw	fa0,200(sp)
    39c4:	fbed                	bnez	a5,39b6 <_aes_encrypt_table+0x27e>
    39c6:	438616fb          	0x438616fb
    39ca:	4d9ac543          	0x4d9ac543
    39ce:	d74d                	beqz	a4,3978 <_aes_encrypt_table+0x240>
    39d0:	3366                	fld	ft6,120(sp)
    39d2:	85115533          	0x85115533
    39d6:	9485                	srai	s1,s1,0x21
    39d8:	458a                	lw	a1,128(sp)
    39da:	cf45                	beqz	a4,3a92 <_aes_encrypt_table+0x35a>
    39dc:	f9e9                	bnez	a1,39ae <_aes_encrypt_table+0x276>
    39de:	10f9                	addi	ra,ra,-2
    39e0:	0204                	addi	s1,sp,256
    39e2:	0602                	c.slli64	a2
    39e4:	7ffe                	flw	ft11,252(sp)
    39e6:	817f                	0x817f
    39e8:	50a0                	lw	s0,96(s1)
    39ea:	f050                	fsw	fa2,36(s0)
    39ec:	3c78                	fld	fa4,248(s0)
    39ee:	443c                	lw	a5,72(s0)
    39f0:	9f25                	0x9f25
    39f2:	ba9f a84b e3a8      	0xe3a8a84bba9f
    39f8:	51a2                	lw	gp,40(sp)
    39fa:	f351                	bnez	a4,397e <_aes_encrypt_table+0x246>
    39fc:	a35d                	j	3fa2 <_aes_encrypt_table+0x86a>
    39fe:	4080fea3          	0x4080fea3
    3a02:	c040                	sw	s0,4(s0)
    3a04:	8f05                	sub	a4,a4,s1
    3a06:	923f8a8f          	0x923f8a8f
    3a0a:	ad92                	fsd	ft4,216(sp)
    3a0c:	9d21                	0x9d21
    3a0e:	bc9d                	j	3484 <_aes_decrypt_table+0xe4c>
    3a10:	3870                	fld	fa2,240(s0)
    3a12:	4838                	lw	a4,80(s0)
    3a14:	f5f1                	bnez	a1,39e0 <_aes_encrypt_table+0x2a8>
    3a16:	04f5                	addi	s1,s1,29
    3a18:	dfbcbc63          	0xdfbcbc63
    3a1c:	c1b6b677          	0xc1b6b677
    3a20:	75dadaaf          	0x75dadaaf
    3a24:	2142                	fld	ft2,16(sp)
    3a26:	6321                	lui	t1,0x8
    3a28:	1020                	addi	s0,sp,40
    3a2a:	3010                	fld	fa2,32(s0)
    3a2c:	ffe5                	bnez	a5,3a24 <_aes_encrypt_table+0x2ec>
    3a2e:	1aff                	0x1aff
    3a30:	f3fd                	bnez	a5,3a16 <_aes_encrypt_table+0x2de>
    3a32:	d2bf0ef3          	0xd2bf0ef3
    3a36:	6dd2                	flw	fs11,20(sp)
    3a38:	cd81                	beqz	a1,3a50 <_aes_encrypt_table+0x318>
    3a3a:	4ccd                	li	s9,19
    3a3c:	0c18                	addi	a4,sp,528
    3a3e:	140c                	addi	a1,sp,544
    3a40:	1326                	slli	t1,t1,0x29
    3a42:	ecc33513          	sltiu	a0,t1,-308
    3a46:	2fec                	fld	fa1,216(a5)
    3a48:	5fbe                	lw	t6,236(sp)
    3a4a:	e15f 9735 a297      	0xa2979735e15f
    3a50:	4488                	lw	a0,8(s1)
    3a52:	cc44                	sw	s1,28(s0)
    3a54:	172e                	slli	a4,a4,0x2b
    3a56:	c4933917          	auipc	s2,0xc4933
    3a5a:	57c4                	lw	s1,44(a5)
    3a5c:	a755                	j	4200 <_aes_encrypt_table+0xac8>
    3a5e:	7efcf2a7          	0x7efcf2a7
    3a62:	827e                	mv	tp,t6
    3a64:	3d7a                	fld	fs10,440(sp)
    3a66:	473d                	li	a4,15
    3a68:	64c8                	flw	fa0,12(s1)
    3a6a:	ac64                	fsd	fs1,216(s0)
    3a6c:	5dba                	lw	s11,172(sp)
    3a6e:	e75d                	bnez	a4,3b1c <_aes_encrypt_table+0x3e4>
    3a70:	1932                	slli	s2,s2,0x2c
    3a72:	2b19                	jal	3f88 <_aes_encrypt_table+0x850>
    3a74:	73e6                	flw	ft7,120(sp)
    3a76:	60c09573          	csrrw	a0,0x60c,ra
    3a7a:	a060                	fsd	fs0,192(s0)
    3a7c:	8119                	srli	a0,a0,0x6
    3a7e:	9881                	andi	s1,s1,-32
    3a80:	4f9e                	lw	t6,196(sp)
    3a82:	dca3d14f          	0xdca3d14f
    3a86:	7fdc                	flw	fa5,60(a5)
    3a88:	2244                	fld	fs1,128(a2)
    3a8a:	6622                	flw	fa2,8(sp)
    3a8c:	2a54                	fld	fa3,144(a2)
    3a8e:	7e2a                	flw	ft8,168(sp)
    3a90:	ab90903b          	0xab90903b
    3a94:	8388880b          	0x8388880b
    3a98:	468c                	lw	a1,8(a3)
    3a9a:	ca46                	sw	a7,20(sp)
    3a9c:	29eeeec7          	fmsub.s	ft9,ft9,ft10,ft5,unknown
    3aa0:	d3b8b86b          	0xd3b8b86b
    3aa4:	1428                	addi	a0,sp,552
    3aa6:	3c14                	fld	fa3,56(s0)
    3aa8:	79dedea7          	0x79dedea7
    3aac:	5ebc                	lw	a5,120(a3)
    3aae:	e25e                	fsw	fs7,4(sp)
    3ab0:	0b16                	slli	s6,s6,0x5
    3ab2:	dbad1d0b          	0xdbad1d0b
    3ab6:	e0db76db          	0xe0db76db
    3aba:	3be0                	fld	fs0,240(a5)
    3abc:	3264                	fld	fs1,224(a2)
    3abe:	5632                	lw	a2,44(sp)
    3ac0:	3a74                	fld	fa3,240(a2)
    3ac2:	4e3a                	lw	t3,140(sp)
    3ac4:	0a14                	addi	a3,sp,272
    3ac6:	1e0a                	slli	t3,t3,0x22
    3ac8:	4992                	lw	s3,4(sp)
    3aca:	db49                	beqz	a4,3a5c <_aes_encrypt_table+0x324>
    3acc:	060c                	addi	a1,sp,768
    3ace:	0a06                	slli	s4,s4,0x1
    3ad0:	2448                	fld	fa0,136(s0)
    3ad2:	6c24                	flw	fs1,88(s0)
    3ad4:	5cb8                	lw	a4,120(s1)
    3ad6:	e45c                	fsw	fa5,12(s0)
    3ad8:	c29f 5dc2 d3bd      	0xd3bd5dc2c29f
    3ade:	ac436ed3          	0xac436ed3
    3ae2:	efac                	fsw	fa1,88(a5)
    3ae4:	62c4                	flw	fs1,4(a3)
    3ae6:	a662                	fsd	fs8,264(sp)
    3ae8:	9139                	srli	a0,a0,0x2e
    3aea:	a891                	j	3b3e <_aes_encrypt_table+0x406>
    3aec:	9531                	srai	a0,a0,0x2c
    3aee:	a495                	j	3d52 <_aes_encrypt_table+0x61a>
    3af0:	37e4e4d3          	0x37e4e4d3
    3af4:	79f2                	flw	fs3,60(sp)
    3af6:	8b79                	andi	a4,a4,30
    3af8:	e7d5                	bnez	a5,3ba4 <_aes_encrypt_table+0x46c>
    3afa:	c88b32e7          	0xc88b32e7
    3afe:	43c8                	lw	a0,4(a5)
    3b00:	376e                	fld	fa4,248(sp)
    3b02:	6dda5937          	lui	s2,0x6dda5
    3b06:	b76d                	j	3ab0 <_aes_encrypt_table+0x378>
    3b08:	8d01                	sub	a0,a0,s0
    3b0a:	8c8d                	sub	s1,s1,a1
    3b0c:	d5b1                	beqz	a1,3a58 <_aes_encrypt_table+0x320>
    3b0e:	64d5                	lui	s1,0x15
    3b10:	4e9c                	lw	a5,24(a3)
    3b12:	d24e                	sw	s3,36(sp)
    3b14:	a949                	j	3fa6 <_aes_encrypt_table+0x86e>
    3b16:	e0a9                	bnez	s1,3b58 <_aes_encrypt_table+0x420>
    3b18:	6cd8                	flw	fa4,28(s1)
    3b1a:	b46c                	fsd	fa1,232(s0)
    3b1c:	56ac                	lw	a1,104(a3)
    3b1e:	fa56                	fsw	fs5,52(sp)
    3b20:	07f4f4f3          	csrrci	s1,0x7f,9
    3b24:	25eaeacf          	0x25eaeacf
    3b28:	65ca                	flw	fa1,144(sp)
    3b2a:	af65                	j	42e2 <_aes_encrypt_table+0xbaa>
    3b2c:	7af4                	flw	fa3,116(a3)
    3b2e:	8e7a                	mv	t3,t5
    3b30:	e9aeae47          	fmsub.s	ft8,ft9,fs10,ft9,rdn
    3b34:	0810                	addi	a2,sp,16
    3b36:	1808                	addi	a0,sp,48
    3b38:	d5baba6f          	jal	s4,fffaf892 <__BSS_END__+0xfffa9e2e>
    3b3c:	78f0                	flw	fa2,116(s1)
    3b3e:	8878                	0x8878
    3b40:	254a                	fld	fa0,144(sp)
    3b42:	6f25                	lui	t5,0x9
    3b44:	2e5c                	fld	fa5,152(a2)
    3b46:	722e                	flw	ft4,232(sp)
    3b48:	1c38                	addi	a4,sp,568
    3b4a:	241c                	fld	fa5,8(s0)
    3b4c:	f1a6a657          	0xf1a6a657
    3b50:	c7b4b473          	csrrc	s0,0xc7b,s1
    3b54:	51c6c697          	auipc	a3,0x51c6c
    3b58:	23e8e8cb          	fnmsub.d	fa7,fa7,ft10,ft4,unknown
    3b5c:	dda1                	beqz	a1,3ab4 <_aes_encrypt_table+0x37c>
    3b5e:	7cdd                	lui	s9,0xffff7
    3b60:	74e8                	flw	fa0,108(s1)
    3b62:	9c74                	0x9c74
    3b64:	1f3e                	slli	t5,t5,0x2f
    3b66:	211f 4b96 dd4b      	0xdd4b4b96211f
    3b6c:	bd61                	j	3a04 <_aes_encrypt_table+0x2cc>
    3b6e:	dcbd                	beqz	s1,3aec <_aes_encrypt_table+0x3b4>
    3b70:	8b0d                	andi	a4,a4,3
    3b72:	8a0f868b          	0x8a0f868b
    3b76:	858a                	mv	a1,sp
    3b78:	70e0                	flw	fs0,100(s1)
    3b7a:	9070                	0x9070
    3b7c:	3e7c                	fld	fa5,248(a2)
    3b7e:	423e                	lw	tp,204(sp)
    3b80:	b571                	j	3a0c <_aes_encrypt_table+0x2d4>
    3b82:	c4b5                	beqz	s1,3bee <_aes_encrypt_table+0x4b6>
    3b84:	66cc                	flw	fa1,12(a3)
    3b86:	aa66                	fsd	fs9,272(sp)
    3b88:	4890                	lw	a2,16(s1)
    3b8a:	d848                	sw	a0,52(s0)
    3b8c:	0306                	slli	t1,t1,0x1
    3b8e:	f6f70503          	lb	a0,-145(a4)
    3b92:	01f6                	slli	gp,gp,0x1d
    3b94:	0e1c                	addi	a5,sp,784
    3b96:	120e                	slli	tp,tp,0x23
    3b98:	61c2                	flw	ft3,16(sp)
    3b9a:	a361                	j	4122 <_aes_encrypt_table+0x9ea>
    3b9c:	356a                	fld	fa0,184(sp)
    3b9e:	5f35                	li	t5,-19
    3ba0:	57ae                	lw	a5,232(sp)
    3ba2:	b969f957          	0xb969f957
    3ba6:	d0b9                	beqz	s1,3aec <_aes_encrypt_table+0x3b4>
    3ba8:	91868617          	auipc	a2,0x91868
    3bac:	c199                	beqz	a1,3bb2 <_aes_encrypt_table+0x47a>
    3bae:	58c1                	li	a7,-16
    3bb0:	1d3a                	slli	s10,s10,0x2e
    3bb2:	271d                	jal	42d8 <_aes_encrypt_table+0xba0>
    3bb4:	b99e9e27          	0xb99e9e27
    3bb8:	e1d9                	bnez	a1,3c3e <_aes_encrypt_table+0x506>
    3bba:	38e1                	jal	3492 <_aes_decrypt_table+0xe5a>
    3bbc:	13f8f8eb          	0x13f8f8eb
    3bc0:	b398982b          	0xb398982b
    3bc4:	1122                	slli	sp,sp,0x28
    3bc6:	3311                	jal	38ca <_aes_encrypt_table+0x192>
    3bc8:	69d2                	flw	fs3,20(sp)
    3bca:	bb69                	j	3964 <_aes_encrypt_table+0x22c>
    3bcc:	d9a9                	beqz	a1,3b1e <_aes_encrypt_table+0x3e6>
    3bce:	70d9                	lui	ra,0xffff6
    3bd0:	898e8e07          	0x898e8e07
    3bd4:	a7949433          	0xa7949433
    3bd8:	9b2d                	andi	a4,a4,-21
    3bda:	1e3cb69b          	0x1e3cb69b
    3bde:	221e                	fld	ft4,448(sp)
    3be0:	8715                	srai	a4,a4,0x5
    3be2:	e9c99287          	0xe9c99287
    3be6:	20e9                	jal	3cb0 <_aes_encrypt_table+0x578>
    3be8:	49cece87          	flq	ft9,1180(t4) # 549c <impure_data+0x26c>
    3bec:	55aa                	lw	a1,168(sp)
    3bee:	ff55                	bnez	a4,3baa <_aes_encrypt_table+0x472>
    3bf0:	2850                	fld	fa2,144(s0)
    3bf2:	7828                	flw	fa0,112(s0)
    3bf4:	dfa5                	beqz	a5,3b6c <_aes_encrypt_table+0x434>
    3bf6:	7adf 8c03 8f8c      	0x8f8c8c037adf
    3bfc:	a159                	j	4082 <_aes_encrypt_table+0x94a>
    3bfe:	f8a1                	bnez	s1,3b4e <_aes_encrypt_table+0x416>
    3c00:	8909                	andi	a0,a0,2
    3c02:	8089                	srli	s1,s1,0x2
    3c04:	0d1a                	slli	s10,s10,0x6
    3c06:	170d                	addi	a4,a4,-29
    3c08:	bf65                	j	3bc0 <_aes_encrypt_table+0x488>
    3c0a:	e6d7dabf 428431e6 	0x428431e6e6d7dabf
    3c12:	c642                	sw	a6,12(sp)
    3c14:	68d0                	flw	fa2,20(s1)
    3c16:	b868                	fsd	fa0,240(s0)
    3c18:	4182                	lw	gp,0(sp)
    3c1a:	c341                	beqz	a4,3c9a <_aes_encrypt_table+0x562>
    3c1c:	9929                	andi	a0,a0,-22
    3c1e:	b099                	j	3464 <_aes_decrypt_table+0xe2c>
    3c20:	2d5a                	fld	fs10,400(sp)
    3c22:	772d                	lui	a4,0xfffeb
    3c24:	0f1e                	slli	t5,t5,0x7
    3c26:	b07b110f          	0xb07b110f
    3c2a:	cbb0                	sw	a2,80(a5)
    3c2c:	54a8                	lw	a0,104(s1)
    3c2e:	fc54                	fsw	fa3,60(s0)
    3c30:	bb6d                	j	39ea <_aes_encrypt_table+0x2b2>
    3c32:	162cd6bb          	0x162cd6bb
    3c36:	3a16                	fld	fs4,352(sp)
    3c38:	c6a5                	beqz	a3,3ca0 <_aes_encrypt_table+0x568>
    3c3a:	f8846363          	bltu	s0,s0,33c0 <_aes_decrypt_table+0xd88>
    3c3e:	7c7c                	flw	fa5,124(s0)
    3c40:	ee99                	bnez	a3,3c5e <_aes_encrypt_table+0x526>
    3c42:	f68d7777          	0xf68d7777
    3c46:	ff0d7b7b          	0xff0d7b7b
    3c4a:	f2f2                	fsw	ft8,100(sp)
    3c4c:	d6bd                	beqz	a3,3bba <_aes_encrypt_table+0x482>
    3c4e:	deb16b6b          	0xdeb16b6b
    3c52:	91546f6f          	jal	t5,fff4a566 <__BSS_END__+0xfff44b02>
    3c56:	c5c5                	beqz	a1,3cfe <_aes_encrypt_table+0x5c6>
    3c58:	6050                	flw	fa2,4(s0)
    3c5a:	3030                	fld	fa2,96(s0)
    3c5c:	01010203          	lb	tp,16(sp) # 8e14a010 <__BSS_END__+0x8e1445ac>
    3c60:	cea9                	beqz	a3,3cba <_aes_encrypt_table+0x582>
    3c62:	567d6767          	0x567d6767
    3c66:	e7192b2b          	0xe7192b2b
    3c6a:	fefe                	fsw	ft11,124(sp)
    3c6c:	b562                	fsd	fs8,168(sp)
    3c6e:	4de6d7d7          	0x4de6d7d7
    3c72:	ec9aabab          	0xec9aabab
    3c76:	7676                	flw	fa2,124(sp)
    3c78:	8f45                	or	a4,a4,s1
    3c7a:	caca                	sw	s2,84(sp)
    3c7c:	1f9d                	addi	t6,t6,-25
    3c7e:	8282                	jr	t0
    3c80:	8940                	0x8940
    3c82:	c9c9                	beqz	a1,3d14 <_aes_encrypt_table+0x5dc>
    3c84:	7d7dfa87          	0x7d7dfa87
    3c88:	ef15                	bnez	a4,3cc4 <_aes_encrypt_table+0x58c>
    3c8a:	fafa                	fsw	ft10,116(sp)
    3c8c:	5959b2eb          	0x5959b2eb
    3c90:	8ec9                	or	a3,a3,a0
    3c92:	fb0b4747          	fmsub.d	fa4,fs6,fa6,ft11,rmm
    3c96:	f0f0                	fsw	fa2,100(s1)
    3c98:	41ec                	lw	a1,68(a1)
    3c9a:	adad                	j	4314 <_aes_encrypt_table+0xbdc>
    3c9c:	d4d4b367          	0xd4d4b367
    3ca0:	5ffd                	li	t6,-1
    3ca2:	a2a2                	fsd	fs0,320(sp)
    3ca4:	45ea                	lw	a1,152(sp)
    3ca6:	23bfafaf          	amoxor.w.rl	t6,s11,(t6)
    3caa:	9c9c                	0x9c9c
    3cac:	a4a453f7          	0xa4a453f7
    3cb0:	e496                	fsw	ft5,72(sp)
    3cb2:	7272                	flw	ft4,60(sp)
    3cb4:	c0c09b5b          	0xc0c09b5b
    3cb8:	75c2                	flw	fa1,48(sp)
    3cba:	e11cb7b7          	lui	a5,0xe11cb
    3cbe:	fdfd                	bnez	a1,3cbc <_aes_encrypt_table+0x584>
    3cc0:	3dae                	fld	fs11,232(sp)
    3cc2:	4c6a9393          	0x4c6a9393
    3cc6:	2626                	fld	fa2,72(sp)
    3cc8:	6c5a                	flw	fs8,148(sp)
    3cca:	3636                	fld	fa2,360(sp)
    3ccc:	7e41                	lui	t3,0xffff0
    3cce:	f5023f3f 834ff7f7 	0x834ff7f7f5023f3f
    3cd6:	cccc                	sw	a1,28(s1)
    3cd8:	685c                	flw	fa5,20(s0)
    3cda:	3434                	fld	fa3,104(s0)
    3cdc:	51f4                	lw	a3,100(a1)
    3cde:	a5a5                	j	4346 <_aes_encrypt_table+0xc0e>
    3ce0:	d134                	sw	a3,96(a0)
    3ce2:	e5e5                	bnez	a1,3dca <_aes_encrypt_table+0x692>
    3ce4:	f908                	fsw	fa0,48(a0)
    3ce6:	f1f1                	bnez	a1,3caa <_aes_encrypt_table+0x572>
    3ce8:	7171e293          	ori	t0,gp,1815
    3cec:	d8d8ab73          	csrrs	s6,0xd8d,a7
    3cf0:	31316253          	0x31316253
    3cf4:	15152a3f 0404080c 	0x404080c15152a3f
    3cfc:	9552                	add	a0,a0,s4
    3cfe:	4665c7c7          	fmsub.q	fa5,fa1,ft6,fs0,rmm
    3d02:	9d5e2323          	sw	s5,-1594(t3) # fffef9c6 <__BSS_END__+0xfffe9f62>
    3d06:	3028c3c3          	fmadd.s	ft7,fa7,ft2,ft6,rmm
    3d0a:	1818                	addi	a4,sp,48
    3d0c:	37a1                	jal	3c54 <_aes_encrypt_table+0x51c>
    3d0e:	9696                	add	a3,a3,t0
    3d10:	05050a0f          	0x5050a0f
    3d14:	2fb5                	jal	4490 <_aes_encrypt_table+0xd58>
    3d16:	9a9a                	add	s5,s5,t1
    3d18:	0e09                	addi	t3,t3,2
    3d1a:	24360707          	0x24360707
    3d1e:	1212                	slli	tp,tp,0x24
    3d20:	80801b9b          	0x80801b9b
    3d24:	df3d                	beqz	a4,3ca2 <_aes_encrypt_table+0x56a>
    3d26:	e2e2                	fsw	fs8,68(sp)
    3d28:	cd26                	sw	s1,152(sp)
    3d2a:	4e69ebeb          	0x4e69ebeb
    3d2e:	7fcd2727          	fsw	ft8,2030(s10) # 1b124912 <__BSS_END__+0x1b11eeae>
    3d32:	b2b2                	fsd	fa2,352(sp)
    3d34:	ea9f 7575 121b      	0x121b7575ea9f
    3d3a:	0909                	addi	s2,s2,2
    3d3c:	1d9e                	slli	s11,s11,0x27
    3d3e:	58748383          	lb	t2,1415(s1) # 15587 <__BSS_END__+0xfb23>
    3d42:	2c2c                	fld	fa1,88(s0)
    3d44:	342e                	fld	fs0,232(sp)
    3d46:	1a1a                	slli	s4,s4,0x26
    3d48:	362d                	jal	3872 <_aes_encrypt_table+0x13a>
    3d4a:	dcb21b1b          	0xdcb21b1b
    3d4e:	6e6e                	flw	ft8,216(sp)
    3d50:	b4ee                	fsd	fs11,104(sp)
    3d52:	5a5a                	lw	s4,180(sp)
    3d54:	a0a05bfb          	0xa0a05bfb
    3d58:	a4f6                	fsd	ft9,72(sp)
    3d5a:	5252                	lw	tp,52(sp)
    3d5c:	764d                	lui	a2,0xffff3
    3d5e:	b7613b3b          	0xb7613b3b
    3d62:	d6d6                	sw	s5,108(sp)
    3d64:	7dce                	flw	fs11,240(sp)
    3d66:	527bb3b3          	0x527bb3b3
    3d6a:	2929                	jal	4184 <_aes_encrypt_table+0xa4c>
    3d6c:	dd3e                	sw	a5,184(sp)
    3d6e:	5e71e3e3          	bltu	gp,t2,4b54 <mtable+0x31c>
    3d72:	13972f2f          	0x13972f2f
    3d76:	8484                	0x8484
    3d78:	a6f5                	j	4164 <_aes_encrypt_table+0xa2c>
    3d7a:	b9685353          	0xb9685353
    3d7e:	d1d1                	beqz	a1,3d02 <_aes_encrypt_table+0x5ca>
    3d80:	0000                	unimp
    3d82:	0000                	unimp
    3d84:	c12c                	sw	a1,64(a0)
    3d86:	eded                	bnez	a1,3e80 <_aes_encrypt_table+0x748>
    3d88:	4060                	lw	s0,68(s0)
    3d8a:	2020                	fld	fs0,64(s0)
    3d8c:	e31f fcfc 79c8      	0x79c8fcfce31f
    3d92:	b1b1                	j	39de <_aes_encrypt_table+0x2a6>
    3d94:	b6ed                	j	397e <_aes_encrypt_table+0x246>
    3d96:	d4be5b5b          	0xd4be5b5b
    3d9a:	6a6a                	flw	fs4,152(sp)
    3d9c:	8d46                	mv	s10,a7
    3d9e:	67d9cbcb          	fnmsub.q	fs7,fs3,ft9,fa2,rmm
    3da2:	bebe                	fsd	fa5,376(sp)
    3da4:	3939724b          	fnmsub.s	ft4,fs2,fs3,ft7
    3da8:	94de                	add	s1,s1,s7
    3daa:	4a4a                	lw	s4,144(sp)
    3dac:	98d4                	0x98d4
    3dae:	4c4c                	lw	a1,28(s0)
    3db0:	b0e8                	fsd	fa0,224(s1)
    3db2:	5858                	lw	a4,52(s0)
    3db4:	854a                	mv	a0,s2
    3db6:	bb6bcfcf          	fnmadd.d	ft11,fs7,fs6,fs7,rmm
    3dba:	d0d0                	sw	a2,36(s1)
    3dbc:	c52a                	sw	a0,136(sp)
    3dbe:	4fe5efef          	jal	t6,622bc <__BSS_END__+0x5c858>
    3dc2:	aaaa                	fsd	fa0,336(sp)
    3dc4:	ed16                	fsw	ft5,152(sp)
    3dc6:	86c5fbfb          	0x86c5fbfb
    3dca:	9ad74343          	fmadd.d	ft6,fa4,fa3,fs3,rmm
    3dce:	4d4d                	li	s10,19
    3dd0:	6655                	lui	a2,0x15
    3dd2:	11943333          	0x11943333
    3dd6:	8585                	srai	a1,a1,0x1
    3dd8:	45458acf          	0x45458acf
    3ddc:	e910                	fsw	fa2,16(a0)
    3dde:	f9f9                	bnez	a1,3db4 <_aes_encrypt_table+0x67c>
    3de0:	0406                	slli	s0,s0,0x1
    3de2:	0202                	c.slli64	tp
    3de4:	fe81                	bnez	a3,3cfc <_aes_encrypt_table+0x5c4>
    3de6:	7f7f                	0x7f7f
    3de8:	a0f0                	fsd	fa2,192(s1)
    3dea:	5050                	lw	a2,36(s0)
    3dec:	7844                	flw	fs1,52(s0)
    3dee:	3c3c                	fld	fa5,120(s0)
    3df0:	25ba                	fld	fa1,392(sp)
    3df2:	9f9f 4be3 a8a8      	0xa8a84be39f9f
    3df8:	5151a2f3          	csrrs	t0,0x515,gp
    3dfc:	5dfe                	lw	s11,252(sp)
    3dfe:	80c0a3a3          	sw	a2,-2041(ra) # ffff5807 <__BSS_END__+0xfffefda3>
    3e02:	4040                	lw	s0,4(s0)
    3e04:	058a                	slli	a1,a1,0x2
    3e06:	3fad8f8f          	0x3fad8f8f
    3e0a:	9292                	add	t0,t0,tp
    3e0c:	21bc                	fld	fa5,64(a1)
    3e0e:	9d9d                	0x9d9d
    3e10:	7048                	flw	fa0,36(s0)
    3e12:	3838                	fld	fa4,112(s0)
    3e14:	f104                	fsw	fs1,32(a0)
    3e16:	f5f5                	bnez	a1,3e02 <_aes_encrypt_table+0x6ca>
    3e18:	63df bcbc 77c1      	0x77c1bcbc63df
    3e1e:	b6b6                	fsd	fa3,360(sp)
    3e20:	af75                	j	45dc <_aes_encrypt_table+0xea4>
    3e22:	dada                	sw	s6,116(sp)
    3e24:	21214263          	blt	sp,s2,4028 <_aes_encrypt_table+0x8f0>
    3e28:	2030                	fld	fa2,64(s0)
    3e2a:	1010                	addi	a2,sp,32
    3e2c:	e51a                	fsw	ft6,136(sp)
    3e2e:	ffff                	0xffff
    3e30:	fd0e                	fsw	ft3,184(sp)
    3e32:	bf6df3f3          	csrrci	t2,0xbf6,27
    3e36:	d2d2                	sw	s4,100(sp)
    3e38:	814c                	0x814c
    3e3a:	cdcd                	beqz	a1,3ef4 <_aes_encrypt_table+0x7bc>
    3e3c:	1814                	addi	a3,sp,48
    3e3e:	0c0c                	addi	a1,sp,528
    3e40:	2635                	jal	416c <_aes_encrypt_table+0xa34>
    3e42:	c32f1313          	0xc32f1313
    3e46:	ecec                	fsw	fa1,92(s1)
    3e48:	bee1                	j	3a20 <_aes_encrypt_table+0x2e8>
    3e4a:	5f5f 35a2 9797      	0x979735a25f5f
    3e50:	88cc                	0x88cc
    3e52:	4444                	lw	s1,12(s0)
    3e54:	2e39                	jal	4172 <_aes_encrypt_table+0xa3a>
    3e56:	93571717          	auipc	a4,0x93571
    3e5a:	c4c4                	sw	s1,12(s1)
    3e5c:	55f2                	lw	a1,60(sp)
    3e5e:	fc82a7a7          	fsw	fs0,-49(t0) # fde1bfcf <__BSS_END__+0xfde1656b>
    3e62:	7e7e                	flw	ft8,252(sp)
    3e64:	3d3d7a47          	0x3d3d7a47
    3e68:	c8ac                	sw	a1,80(s1)
    3e6a:	6464                	flw	fs1,76(s0)
    3e6c:	5d5dbae7          	0x5d5dbae7
    3e70:	1919322b          	0x1919322b
    3e74:	e695                	bnez	a3,3ea0 <_aes_encrypt_table+0x768>
    3e76:	c0a07373          	csrrci	t1,hpmcounter10,0
    3e7a:	6060                	flw	fs0,68(s0)
    3e7c:	1998                	addi	a4,sp,240
    3e7e:	8181                	c.srli64	a1
    3e80:	9ed1                	0x9ed1
    3e82:	a37f4f4f          	fnmadd.d	ft10,ft10,fs7,fs4,rmm
    3e86:	dcdc                	sw	a5,60(s1)
    3e88:	4466                	lw	s0,88(sp)
    3e8a:	2222                	fld	ft4,8(sp)
    3e8c:	547e                	lw	s0,252(sp)
    3e8e:	2a2a                	fld	fs4,136(sp)
    3e90:	90903bab          	0x90903bab
    3e94:	88880b83          	lb	s7,-1912(a6) # 7888 <__BSS_END__+0x1e24>
    3e98:	8cca                	mv	s9,s2
    3e9a:	4646                	lw	a2,80(sp)
    3e9c:	c729                	beqz	a4,3ee6 <_aes_encrypt_table+0x7ae>
    3e9e:	eeee                	fsw	fs11,92(sp)
    3ea0:	b8b86bd3          	0xb8b86bd3
    3ea4:	283c                	fld	fa5,80(s0)
    3ea6:	1414                	addi	a3,sp,544
    3ea8:	a779                	j	4636 <_aes_encrypt_table+0xefe>
    3eaa:	dede                	sw	s7,124(sp)
    3eac:	bce2                	fsd	fs8,120(sp)
    3eae:	5e5e                	lw	t3,244(sp)
    3eb0:	161d                	addi	a2,a2,-25
    3eb2:	ad760b0b          	0xad760b0b
    3eb6:	db3bdbdb          	0xdb3bdbdb
    3eba:	e0e0                	fsw	fs0,68(s1)
    3ebc:	6456                	flw	fs0,84(sp)
    3ebe:	3232                	fld	ft4,296(sp)
    3ec0:	744e                	flw	fs0,240(sp)
    3ec2:	3a3a                	fld	fs4,424(sp)
    3ec4:	141e                	slli	s0,s0,0x27
    3ec6:	0a0a                	slli	s4,s4,0x2
    3ec8:	494992db          	0x494992db
    3ecc:	0c0a                	slli	s8,s8,0x2
    3ece:	0606                	slli	a2,a2,0x1
    3ed0:	486c                	lw	a1,84(s0)
    3ed2:	2424                	fld	fs1,72(s0)
    3ed4:	b8e4                	fsd	fs1,240(s1)
    3ed6:	5c5c                	lw	a5,60(s0)
    3ed8:	9f5d                	0x9f5d
    3eda:	c2c2                	sw	a6,68(sp)
    3edc:	bd6e                	fsd	fs11,184(sp)
    3ede:	43efd3d3          	0x43efd3d3
    3ee2:	acac                	fsd	fa1,88(s1)
    3ee4:	c4a6                	sw	s1,72(sp)
    3ee6:	6262                	flw	ft4,24(sp)
    3ee8:	39a8                	fld	fa0,112(a1)
    3eea:	9191                	srli	a1,a1,0x24
    3eec:	31a4                	fld	fs1,96(a1)
    3eee:	9595                	srai	a1,a1,0x25
    3ef0:	e4e4d337          	lui	t1,0xe4e4d
    3ef4:	7979f28b          	0x7979f28b
    3ef8:	d532                	sw	a2,168(sp)
    3efa:	8b43e7e7          	0x8b43e7e7
    3efe:	c8c8                	sw	a0,20(s1)
    3f00:	6e59                	lui	t3,0x16
    3f02:	dab73737          	lui	a4,0xdab73
    3f06:	6d6d                	lui	s10,0x1b
    3f08:	018c                	addi	a1,sp,192
    3f0a:	8d8d                	sub	a1,a1,a1
    3f0c:	b164                	fsd	fs1,224(a0)
    3f0e:	d5d5                	beqz	a1,3eba <_aes_encrypt_table+0x782>
    3f10:	9cd2                	add	s9,s9,s4
    3f12:	4e4e                	lw	t3,208(sp)
    3f14:	49e0                	lw	s0,84(a1)
    3f16:	a9a9                	j	4370 <_aes_encrypt_table+0xc38>
    3f18:	d8b4                	sw	a3,112(s1)
    3f1a:	6c6c                	flw	fa1,92(s0)
    3f1c:	acfa                	fsd	ft10,88(sp)
    3f1e:	5656                	lw	a2,116(sp)
    3f20:	f4f4f307          	0xf4f4f307
    3f24:	cf25                	beqz	a4,3f9c <_aes_encrypt_table+0x864>
    3f26:	eaea                	fsw	fs10,84(sp)
    3f28:	6565caaf          	0x6565caaf
    3f2c:	f48e                	fsw	ft3,104(sp)
    3f2e:	7a7a                	flw	fs4,188(sp)
    3f30:	47e9                	li	a5,26
    3f32:	aeae                	fsd	fa1,344(sp)
    3f34:	1018                	addi	a4,sp,32
    3f36:	0808                	addi	a0,sp,16
    3f38:	6fd5                	lui	t6,0x15
    3f3a:	baba                	fsd	fa4,368(sp)
    3f3c:	f088                	fsw	fa0,32(s1)
    3f3e:	7878                	flw	fa4,116(s0)
    3f40:	25254a6f          	jal	s4,58192 <__BSS_END__+0x5272e>
    3f44:	5c72                	lw	s8,60(sp)
    3f46:	2e2e                	fld	ft8,200(sp)
    3f48:	3824                	fld	fs1,112(s0)
    3f4a:	1c1c                	addi	a5,sp,560
    3f4c:	57f1                	li	a5,-4
    3f4e:	a6a6                	fsd	fs1,328(sp)
    3f50:	b4b473c7          	0xb4b473c7
    3f54:	9751                	srai	a4,a4,0x34
    3f56:	c6c6                	sw	a7,76(sp)
    3f58:	e8e8cb23          	0xe8e8cb23
    3f5c:	a17c                	fsd	fa5,192(a0)
    3f5e:	dddd                	beqz	a1,3f1c <_aes_encrypt_table+0x7e4>
    3f60:	e89c                	fsw	fa5,16(s1)
    3f62:	7474                	flw	fa3,108(s0)
    3f64:	3e21                	jal	3a7c <_aes_encrypt_table+0x344>
    3f66:	1f1f 96dd 4b4b      	0x4b4b96dd1f1f
    3f6c:	61dc                	flw	fa5,4(a1)
    3f6e:	bdbd                	j	3dec <_aes_encrypt_table+0x6b4>
    3f70:	0d86                	slli	s11,s11,0x1
    3f72:	0f858b8b          	0xf858b8b
    3f76:	8a8a                	mv	s5,sp
    3f78:	e090                	fsw	fa2,0(s1)
    3f7a:	7070                	flw	fa2,100(s0)
    3f7c:	7c42                	flw	fs8,48(sp)
    3f7e:	3e3e                	fld	ft8,488(sp)
    3f80:	71c4                	flw	fs1,36(a1)
    3f82:	b5b5                	j	3dee <_aes_encrypt_table+0x6b6>
    3f84:	ccaa                	sw	a0,88(sp)
    3f86:	6666                	flw	fa2,88(sp)
    3f88:	90d8                	0x90d8
    3f8a:	4848                	lw	a0,20(s0)
    3f8c:	0605                	addi	a2,a2,1
    3f8e:	f7010303          	lb	t1,-144(sp)
    3f92:	f6f6                	fsw	ft9,108(sp)
    3f94:	1c12                	slli	s8,s8,0x24
    3f96:	0e0e                	slli	t3,t3,0x3
    3f98:	6161c2a3          	0x6161c2a3
    3f9c:	6a5f 3535 aef9      	0xaef935356a5f
    3fa2:	69d05757          	0x69d05757
    3fa6:	b9b9                	j	3c04 <_aes_encrypt_table+0x4cc>
    3fa8:	1791                	addi	a5,a5,-28
    3faa:	8686                	mv	a3,ra
    3fac:	9958                	0x9958
    3fae:	c1c1                	beqz	a1,402e <_aes_encrypt_table+0x8f6>
    3fb0:	1d1d3a27          	fsd	fa7,468(s10) # 1b1d4 <__BSS_END__+0x15770>
    3fb4:	27b9                	jal	4702 <_aes_encrypt_table+0xfca>
    3fb6:	9e9e                	add	t4,t4,t2
    3fb8:	d938                	sw	a4,112(a0)
    3fba:	e1e1                	bnez	a1,407a <_aes_encrypt_table+0x942>
    3fbc:	f8f8eb13          	ori	s6,a7,-113
    3fc0:	98982bb3          	0x98982bb3
    3fc4:	11112233          	0x11112233
    3fc8:	6969d2bb          	0x6969d2bb
    3fcc:	a970                	fsd	fa2,208(a0)
    3fce:	d9d9                	beqz	a1,3f64 <_aes_encrypt_table+0x82c>
    3fd0:	0789                	addi	a5,a5,2
    3fd2:	8e8e                	mv	t4,gp
    3fd4:	949433a7          	fsd	fs1,-1721(s0) # ca826947 <__BSS_END__+0xca820ee3>
    3fd8:	2db6                	fld	fs11,328(sp)
    3fda:	3c229b9b          	0x3c229b9b
    3fde:	1e1e                	slli	t3,t3,0x27
    3fe0:	1592                	slli	a1,a1,0x24
    3fe2:	c9208787          	0xc9208787
    3fe6:	e9e9                	bnez	a1,40b8 <_aes_encrypt_table+0x980>
    3fe8:	8749                	srai	a4,a4,0x12
    3fea:	cece                	sw	s3,92(sp)
    3fec:	aaff                	0xaaff
    3fee:	5555                	li	a0,-11
    3ff0:	5078                	lw	a4,100(s0)
    3ff2:	2828                	fld	fa0,80(s0)
    3ff4:	a57a                	fsd	ft10,136(sp)
    3ff6:	dfdf 038f 8c8c      	0x8c8c038fdfdf
    3ffc:	59f8                	lw	a4,116(a1)
    3ffe:	a1a1                	j	4446 <_aes_encrypt_table+0xd0e>
    4000:	0980                	addi	s0,sp,208
    4002:	8989                	andi	a1,a1,2
    4004:	0d0d1a17          	auipc	s4,0xd0d1
    4008:	65da                	flw	fa1,148(sp)
    400a:	d731bfbf 84c6e6e6 	0x84c6e6e6d731bfbf
    4012:	4242                	lw	tp,16(sp)
    4014:	d0b8                	sw	a4,96(s1)
    4016:	6868                	flw	fa0,84(s0)
    4018:	414182c3          	fmadd.s	ft5,ft3,fs4,fs0,rne
    401c:	29b0                	fld	fa2,80(a1)
    401e:	9999                	andi	a1,a1,-26
    4020:	2d2d5a77          	0x2d2d5a77
    4024:	1e11                	addi	t3,t3,-28
    4026:	7bcb0f0f          	0x7bcb0f0f
    402a:	b0b0                	fsd	fa2,96(s1)
    402c:	a8fc                	fsd	fa5,208(s1)
    402e:	5454                	lw	a3,44(s0)
    4030:	6dd6                	flw	fs11,84(sp)
    4032:	2c3abbbb          	0x2c3abbbb
    4036:	1616                	slli	a2,a2,0x25
    4038:	63c6a563          	0x63c6a563
    403c:	847c                	0x847c
    403e:	7cf8                	flw	fa4,124(s1)
    4040:	77ee9977          	0x77ee9977
    4044:	7bf68d7b          	0x7bf68d7b
    4048:	0df2                	slli	s11,s11,0x1c
    404a:	f2ff                	0xf2ff
    404c:	6bd6bd6b          	0x6bd6bd6b
    4050:	6fdeb16f          	jal	sp,eff4c <__BSS_END__+0xea4e8>
    4054:	54c5                	li	s1,-15
    4056:	c591                	beqz	a1,4062 <_aes_encrypt_table+0x92a>
    4058:	5030                	lw	a2,96(s0)
    405a:	3060                	fld	fs0,224(s0)
    405c:	0301                	addi	t1,t1,0
    405e:	0102                	c.slli64	sp
    4060:	67cea967          	0x67cea967
    4064:	2b567d2b          	0x2b567d2b
    4068:	19fe                	slli	s3,s3,0x3f
    406a:	62d7fee7          	0x62d7fee7
    406e:	d7b5                	beqz	a5,3fda <_aes_encrypt_table+0x8a2>
    4070:	ab4de6ab          	0xab4de6ab
    4074:	9a76                	add	s4,s4,t4
    4076:	76ec                	flw	fa1,108(a3)
    4078:	45ca                	lw	a1,144(sp)
    407a:	9d82ca8f          	0x9d82ca8f
    407e:	821f 40c9 c989      	0xc98940c9821f
    4084:	877d                	srai	a4,a4,0x1f
    4086:	7dfa                	flw	fs11,188(sp)
    4088:	15fa                	slli	a1,a1,0x3e
    408a:	eb59faef          	jal	s5,fffa3f3e <__BSS_END__+0xfff9e4da>
    408e:	59b2                	lw	s3,44(sp)
    4090:	478ec947          	fmsub.q	fs2,ft9,fs8,fs0,rmm
    4094:	0bf0                	addi	a2,sp,476
    4096:	ecadf0fb          	0xecadf0fb
    409a:	ad41                	j	472a <_aes_encrypt_table+0xff2>
    409c:	67d4                	flw	fa3,12(a5)
    409e:	fda2d4b3          	0xfda2d4b3
    40a2:	a25f eaaf af45      	0xaf45eaafa25f
    40a8:	bf9c                	fsd	fa5,56(a5)
    40aa:	f7a49c23          	sh	s10,-136(s1)
    40ae:	9672a453          	0x9672a453
    40b2:	72e4                	flw	fs1,100(a3)
    40b4:	5bc0                	lw	s0,52(a5)
    40b6:	c2b7c09b          	0xc2b7c09b
    40ba:	b775                	j	4066 <_aes_encrypt_table+0x92e>
    40bc:	1cfd                	addi	s9,s9,-1
    40be:	fde1                	bnez	a1,4096 <_aes_encrypt_table+0x95e>
    40c0:	933dae93          	slti	t4,s11,-1741
    40c4:	6a26                	flw	fs4,72(sp)
    40c6:	264c                	fld	fa1,136(a2)
    40c8:	5a36                	lw	s4,108(sp)
    40ca:	366c                	fld	fa1,232(a2)
    40cc:	3f7e413f f7f502f7 	0xf7f502f73f7e413f
    40d4:	4fcc                	lw	a1,28(a5)
    40d6:	5c34cc83          	lbu	s9,1475(s1)
    40da:	3468                	fld	fa0,232(s0)
    40dc:	f4a5                	bnez	s1,4044 <_aes_encrypt_table+0x90c>
    40de:	a551                	j	4762 <_aes_encrypt_table+0x102a>
    40e0:	34e5                	jal	3bc8 <_aes_encrypt_table+0x490>
    40e2:	e5d1                	bnez	a1,416e <_aes_encrypt_table+0xa36>
    40e4:	08f1                	addi	a7,a7,28
    40e6:	f1f9                	bnez	a1,40ac <_aes_encrypt_table+0x974>
    40e8:	9371                	srli	a4,a4,0x3c
    40ea:	71e2                	flw	ft3,56(sp)
    40ec:	73d8                	flw	fa4,36(a5)
    40ee:	5331d8ab          	0x5331d8ab
    40f2:	3162                	fld	ft2,56(sp)
    40f4:	3f15                	jal	4028 <_aes_encrypt_table+0x8f0>
    40f6:	152a                	slli	a0,a0,0x2a
    40f8:	0c04                	addi	s1,sp,528
    40fa:	0408                	addi	a0,sp,512
    40fc:	c79552c7          	fmsub.q	ft5,fa0,fs9,fs8,unknown
    4100:	23466523          	0x23466523
    4104:	c39d5ec3          	fmadd.d	ft9,fs10,fs9,fs8,unknown
    4108:	2818                	fld	fa4,16(s0)
    410a:	1830                	addi	a2,sp,56
    410c:	a196                	fsd	ft5,192(sp)
    410e:	0f059637          	lui	a2,0xf059
    4112:	050a                	slli	a0,a0,0x2
    4114:	b59a                	fsd	ft6,232(sp)
    4116:	09079a2f          	0x9079a2f
    411a:	070e                	slli	a4,a4,0x3
    411c:	3612                	fld	fa2,288(sp)
    411e:	1224                	addi	s1,sp,296
    4120:	9b80                	0x9b80
    4122:	3de2801b          	0x3de2801b
    4126:	e2df 26eb ebcd      	0xebcd26ebe2df
    412c:	274e6927          	0x274e6927
    4130:	cdb2                	sw	a2,216(sp)
    4132:	b27f                	0xb27f
    4134:	9f75                	0x9f75
    4136:	75ea                	flw	fa1,184(sp)
    4138:	1b09                	addi	s6,s6,-30
    413a:	0912                	slli	s2,s2,0x4
    413c:	831d9e83          	lh	t4,-1999(s11) # 2693e831 <__BSS_END__+0x26938dcd>
    4140:	742c                	flw	fa1,104(s0)
    4142:	2c58                	fld	fa4,152(s0)
    4144:	2e1a                	fld	ft8,384(sp)
    4146:	1a34                	addi	a3,sp,312
    4148:	1b362d1b          	0x1b362d1b
    414c:	b26e                	fsd	fs11,288(sp)
    414e:	6edc                	flw	fa5,28(a3)
    4150:	ee5a                	fsw	fs6,28(sp)
    4152:	5ab4                	lw	a3,112(a3)
    4154:	fba0                	fsw	fs0,112(a5)
    4156:	f652a05b          	0xf652a05b
    415a:	52a4                	lw	s1,96(a3)
    415c:	3b764d3b          	0x3b764d3b
    4160:	61d6                	flw	ft3,84(sp)
    4162:	ceb3d6b7          	lui	a3,0xceb3d
    4166:	b37d                	j	3f14 <_aes_encrypt_table+0x7dc>
    4168:	7b29                	lui	s6,0xfffea
    416a:	2952                	fld	fs2,272(sp)
    416c:	e3dd3ee3          	0xe3dd3ee3
    4170:	2f5e712f          	0x2f5e712f
    4174:	9784                	0x9784
    4176:	f5538413          	addi	s0,t2,-171
    417a:	53a6                	lw	t2,104(sp)
    417c:	68d1                	lui	a7,0x14
    417e:	d1b9                	beqz	a1,40c4 <_aes_encrypt_table+0x98c>
    4180:	0000                	unimp
    4182:	0000                	unimp
    4184:	2ced                	jal	447e <_aes_encrypt_table+0xd46>
    4186:	edc1                	bnez	a1,421e <_aes_encrypt_table+0xae6>
    4188:	6020                	flw	fs0,64(s0)
    418a:	2040                	fld	fs0,128(s0)
    418c:	1ffc                	addi	a5,sp,1020
    418e:	c8b1fce3          	bgeu	gp,a1,3e26 <_aes_encrypt_table+0x6ee>
    4192:	b179                	j	3e20 <_aes_encrypt_table+0x6e8>
    4194:	5bb6ed5b          	0x5bb6ed5b
    4198:	be6a                	fsd	fs10,312(sp)
    419a:	6ad4                	flw	fa3,20(a3)
    419c:	cb8d46cb          	fnmsub.d	fa3,fs10,fs8,fs9,rmm
    41a0:	d9be                	sw	a5,240(sp)
    41a2:	4b39be67          	0x4b39be67
    41a6:	3972                	fld	fs2,312(sp)
    41a8:	de4a                	sw	s2,60(sp)
    41aa:	4a94                	lw	a3,16(a3)
    41ac:	d44c                	sw	a1,44(s0)
    41ae:	4c98                	lw	a4,24(s1)
    41b0:	e858                	fsw	fa4,20(s0)
    41b2:	58b0                	lw	a2,112(s1)
    41b4:	cf854acf          	fnmadd.q	fs5,fa0,fs8,fs9,rmm
    41b8:	6bd0                	flw	fa2,20(a5)
    41ba:	2aefd0bb          	0x2aefd0bb
    41be:	efc5                	bnez	a5,4276 <_aes_encrypt_table+0xb3e>
    41c0:	e5aa                	fsw	fa0,200(sp)
    41c2:	16fbaa4f          	fnmadd.q	fs4,fs7,fa5,ft2,rdn
    41c6:	fbed                	bnez	a5,41b8 <_aes_encrypt_table+0xa80>
    41c8:	4386c543          	fmadd.d	fa0,fa3,fs8,fs0,rmm
    41cc:	d74d                	beqz	a4,4176 <_aes_encrypt_table+0xa3e>
    41ce:	4d9a                	lw	s11,132(sp)
    41d0:	33665533          	0x33665533
    41d4:	9485                	srai	s1,s1,0x21
    41d6:	8511                	srai	a0,a0,0x4
    41d8:	cf45                	beqz	a4,4290 <_aes_encrypt_table+0xb58>
    41da:	458a                	lw	a1,128(sp)
    41dc:	10f9                	addi	ra,ra,-2
    41de:	f9e9                	bnez	a1,41b0 <_aes_encrypt_table+0xa78>
    41e0:	0602                	c.slli64	a2
    41e2:	0204                	addi	s1,sp,256
    41e4:	817f                	0x817f
    41e6:	7ffe                	flw	ft11,252(sp)
    41e8:	f050                	fsw	fa2,36(s0)
    41ea:	50a0                	lw	s0,96(s1)
    41ec:	443c                	lw	a5,72(s0)
    41ee:	3c78                	fld	fa4,248(s0)
    41f0:	ba9f 9f25 e3a8      	0xe3a89f25ba9f
    41f6:	f351a84b          	fnmsub.d	fa6,ft3,fs5,ft10,rdn
    41fa:	51a2                	lw	gp,40(sp)
    41fc:	a35dfea3          	0xa35dfea3
    4200:	c040                	sw	s0,4(s0)
    4202:	4080                	lw	s0,0(s1)
    4204:	8f058a8f          	0x8f058a8f
    4208:	ad92                	fsd	ft4,216(sp)
    420a:	bc9d923f 48389d21 	0x48389d21bc9d923f
    4212:	3870                	fld	fa2,240(s0)
    4214:	04f5                	addi	s1,s1,29
    4216:	f5f1                	bnez	a1,41e2 <_aes_encrypt_table+0xaaa>
    4218:	dfbc                	sw	a5,120(a5)
    421a:	c1b6bc63          	0xc1b6bc63
    421e:	75dab677          	0x75dab677
    4222:	6321daaf          	0x6321daaf
    4226:	2142                	fld	ft2,16(sp)
    4228:	3010                	fld	fa2,32(s0)
    422a:	1020                	addi	s0,sp,40
    422c:	1aff                	0x1aff
    422e:	ffe5                	bnez	a5,4226 <_aes_encrypt_table+0xaee>
    4230:	f3fd0ef3          	0xf3fd0ef3
    4234:	6dd2                	flw	fs11,20(sp)
    4236:	4ccdd2bf 140ccd81 	0x140ccd814ccdd2bf
    423e:	0c18                	addi	a4,sp,528
    4240:	13263513          	sltiu	a0,a2,306
    4244:	2fec                	fld	fa1,216(a5)
    4246:	e15fecc3          	fmadd.s	fs9,ft11,fs5,ft8,unknown
    424a:	5fbe                	lw	t6,236(sp)
    424c:	9735a297          	auipc	t0,0x9735a
    4250:	cc44                	sw	s1,28(s0)
    4252:	4488                	lw	a0,8(s1)
    4254:	172e3917          	auipc	s2,0x172e3
    4258:	57c4                	lw	s1,44(a5)
    425a:	f2a7c493          	xori	s1,a5,-214
    425e:	a755                	j	4a02 <mtable+0x1ca>
    4260:	827e                	mv	tp,t6
    4262:	7efc                	flw	fa5,124(a3)
    4264:	473d                	li	a4,15
    4266:	3d7a                	fld	fs10,440(sp)
    4268:	ac64                	fsd	fs1,216(s0)
    426a:	64c8                	flw	fa0,12(s1)
    426c:	e75d                	bnez	a4,431a <_aes_encrypt_table+0xbe2>
    426e:	5dba                	lw	s11,172(sp)
    4270:	2b19                	jal	4786 <_aes_encrypt_table+0x104e>
    4272:	1932                	slli	s2,s2,0x2c
    4274:	73e69573          	csrrw	a0,0x73e,a3
    4278:	a060                	fsd	fs0,192(s0)
    427a:	60c0                	flw	fs0,4(s1)
    427c:	9881                	andi	s1,s1,-32
    427e:	8119                	srli	a0,a0,0x6
    4280:	4f9ed14f          	fnmadd.q	ft2,ft9,fs9,fs1,unknown
    4284:	7fdc                	flw	fa5,60(a5)
    4286:	6622dca3          	0x6622dca3
    428a:	2244                	fld	fs1,128(a2)
    428c:	7e2a                	flw	ft8,168(sp)
    428e:	2a54                	fld	fa3,144(a2)
    4290:	ab90                	fsd	fa2,16(a5)
    4292:	8388903b          	0x8388903b
    4296:	ca46880b          	0xca46880b
    429a:	468c                	lw	a1,8(a3)
    429c:	29ee                	fld	fs3,216(sp)
    429e:	d3b8eec7          	fmsub.d	ft9,fa7,fs11,fs10,unknown
    42a2:	3c14b86b          	0x3c14b86b
    42a6:	1428                	addi	a0,sp,552
    42a8:	79de                	flw	fs3,244(sp)
    42aa:	e25edea7          	0xe25edea7
    42ae:	5ebc                	lw	a5,120(a3)
    42b0:	0b161d0b          	0xb161d0b
    42b4:	dbad76db          	0xdbad76db
    42b8:	3be0                	fld	fs0,240(a5)
    42ba:	5632e0db          	0x5632e0db
    42be:	3264                	fld	fs1,224(a2)
    42c0:	4e3a                	lw	t3,140(sp)
    42c2:	3a74                	fld	fa3,240(a2)
    42c4:	1e0a                	slli	t3,t3,0x22
    42c6:	0a14                	addi	a3,sp,272
    42c8:	db49                	beqz	a4,425a <_aes_encrypt_table+0xb22>
    42ca:	4992                	lw	s3,4(sp)
    42cc:	0a06                	slli	s4,s4,0x1
    42ce:	060c                	addi	a1,sp,768
    42d0:	6c24                	flw	fs1,88(s0)
    42d2:	2448                	fld	fa0,136(s0)
    42d4:	e45c                	fsw	fa5,12(s0)
    42d6:	5cb8                	lw	a4,120(s1)
    42d8:	5dc2                	lw	s11,48(sp)
    42da:	c29f 6ed3 d3bd      	0xd3bd6ed3c29f
    42e0:	efac                	fsw	fa1,88(a5)
    42e2:	a662ac43          	fmadd.q	fs8,ft5,ft6,fs4,rdn
    42e6:	62c4                	flw	fs1,4(a3)
    42e8:	a891                	j	433c <_aes_encrypt_table+0xc04>
    42ea:	9139                	srli	a0,a0,0x2e
    42ec:	a495                	j	4550 <_aes_encrypt_table+0xe18>
    42ee:	9531                	srai	a0,a0,0x2c
    42f0:	37e4                	fld	fs1,232(a5)
    42f2:	8b79e4d3          	0x8b79e4d3
    42f6:	79f2                	flw	fs3,60(sp)
    42f8:	e7d532e7          	0xe7d532e7
    42fc:	43c8                	lw	a0,4(a5)
    42fe:	5937c88b          	0x5937c88b
    4302:	376e                	fld	fa4,248(sp)
    4304:	b76d                	j	42ae <_aes_encrypt_table+0xb76>
    4306:	6dda                	flw	fs11,148(sp)
    4308:	8c8d                	sub	s1,s1,a1
    430a:	8d01                	sub	a0,a0,s0
    430c:	64d5                	lui	s1,0x15
    430e:	d5b1                	beqz	a1,425a <_aes_encrypt_table+0xb22>
    4310:	d24e                	sw	s3,36(sp)
    4312:	4e9c                	lw	a5,24(a3)
    4314:	e0a9                	bnez	s1,4356 <_aes_encrypt_table+0xc1e>
    4316:	a949                	j	47a8 <_aes_encrypt_table+0x1070>
    4318:	b46c                	fsd	fa1,232(s0)
    431a:	6cd8                	flw	fa4,28(s1)
    431c:	fa56                	fsw	fs5,52(sp)
    431e:	56ac                	lw	a1,104(a3)
    4320:	07f4                	addi	a3,sp,972
    4322:	25eaf4f3          	csrrci	s1,0x25e,21
    4326:	af65eacf          	fnmadd.q	fs5,fa1,fs6,fs5,unknown
    432a:	65ca                	flw	fa1,144(sp)
    432c:	8e7a                	mv	t3,t5
    432e:	7af4                	flw	fa3,116(a3)
    4330:	e9ae                	fsw	fa1,208(sp)
    4332:	1808ae47          	fmsub.s	ft8,fa7,ft0,ft3,rdn
    4336:	0810                	addi	a2,sp,16
    4338:	d5ba                	sw	a4,232(sp)
    433a:	8878ba6f          	jal	s4,fff8fbc0 <__BSS_END__+0xfff8a15c>
    433e:	78f0                	flw	fa2,116(s1)
    4340:	6f25                	lui	t5,0x9
    4342:	254a                	fld	fa0,144(sp)
    4344:	722e                	flw	ft4,232(sp)
    4346:	2e5c                	fld	fa5,152(a2)
    4348:	241c                	fld	fa5,8(s0)
    434a:	1c38                	addi	a4,sp,568
    434c:	f1a6                	fsw	fs1,224(sp)
    434e:	c7b4a657          	0xc7b4a657
    4352:	51c6b473          	csrrc	s0,0x51c,a3
    4356:	23e8c697          	auipc	a3,0x23e8c
    435a:	7cdde8cb          	0x7cdde8cb
    435e:	dda1                	beqz	a1,42b6 <_aes_encrypt_table+0xb7e>
    4360:	9c74                	0x9c74
    4362:	74e8                	flw	fa0,108(s1)
    4364:	211f 1f3e dd4b      	0xdd4b1f3e211f
    436a:	4b96                	lw	s7,68(sp)
    436c:	dcbd                	beqz	s1,42ea <_aes_encrypt_table+0xbb2>
    436e:	bd61                	j	4206 <_aes_encrypt_table+0xace>
    4370:	8b0d868b          	0x8b0d868b
    4374:	858a                	mv	a1,sp
    4376:	90708a0f          	0x90708a0f
    437a:	70e0                	flw	fs0,100(s1)
    437c:	423e                	lw	tp,204(sp)
    437e:	3e7c                	fld	fa5,248(a2)
    4380:	c4b5                	beqz	s1,43ec <_aes_encrypt_table+0xcb4>
    4382:	b571                	j	420e <_aes_encrypt_table+0xad6>
    4384:	aa66                	fsd	fs9,272(sp)
    4386:	66cc                	flw	fa1,12(a3)
    4388:	d848                	sw	a0,52(s0)
    438a:	4890                	lw	a2,16(s1)
    438c:	03060503          	lb	a0,48(a2) # f059030 <__BSS_END__+0xf0535cc>
    4390:	01f6                	slli	gp,gp,0x1d
    4392:	120ef6f7          	0x120ef6f7
    4396:	0e1c                	addi	a5,sp,784
    4398:	a361                	j	4920 <mtable+0xe8>
    439a:	61c2                	flw	ft3,16(sp)
    439c:	5f35                	li	t5,-19
    439e:	356a                	fld	fa0,184(sp)
    43a0:	57aef957          	0x57aef957
    43a4:	d0b9                	beqz	s1,42ea <_aes_encrypt_table+0xbb2>
    43a6:	b969                	j	4040 <_aes_encrypt_table+0x908>
    43a8:	9186                	add	gp,gp,ra
    43aa:	58c18617          	auipc	a2,0x58c18
    43ae:	c199                	beqz	a1,43b4 <_aes_encrypt_table+0xc7c>
    43b0:	271d                	jal	4ad6 <mtable+0x29e>
    43b2:	1d3a                	slli	s10,s10,0x2e
    43b4:	b99e                	fsd	ft7,240(sp)
    43b6:	38e19e27          	0x38e19e27
    43ba:	e1d9                	bnez	a1,4440 <_aes_encrypt_table+0xd08>
    43bc:	13f8                	addi	a4,sp,492
    43be:	b398f8eb          	0xb398f8eb
    43c2:	3311982b          	0x3311982b
    43c6:	1122                	slli	sp,sp,0x28
    43c8:	bb69                	j	4162 <_aes_encrypt_table+0xa2a>
    43ca:	69d2                	flw	fs3,20(sp)
    43cc:	70d9                	lui	ra,0xffff6
    43ce:	d9a9                	beqz	a1,4320 <_aes_encrypt_table+0xbe8>
    43d0:	898e                	mv	s3,gp
    43d2:	a7948e07          	0xa7948e07
    43d6:	b69b9433          	0xb69b9433
    43da:	9b2d                	andi	a4,a4,-21
    43dc:	221e                	fld	ft4,448(sp)
    43de:	1e3c                	addi	a5,sp,824
    43e0:	87159287          	0x87159287
    43e4:	20e9                	jal	44ae <_aes_encrypt_table+0xd76>
    43e6:	e9c9                	bnez	a1,4478 <_aes_encrypt_table+0xd40>
    43e8:	49ce                	lw	s3,208(sp)
    43ea:	ff55ce87          	flq	ft9,-11(a1) # 12ff5 <__BSS_END__+0xd591>
    43ee:	55aa                	lw	a1,168(sp)
    43f0:	7828                	flw	fa0,112(s0)
    43f2:	2850                	fld	fa2,144(s0)
    43f4:	7adf dfa5 8f8c      	0x8f8cdfa57adf
    43fa:	f8a18c03          	lb	s8,-118(gp) # ede55f8a <__BSS_END__+0xede50526>
    43fe:	a159                	j	4884 <mtable+0x4c>
    4400:	8089                	srli	s1,s1,0x2
    4402:	8909                	andi	a0,a0,2
    4404:	170d                	addi	a4,a4,-29
    4406:	0d1a                	slli	s10,s10,0x6
    4408:	bf65dabf e6d731e6 	0xe6d731e6bf65dabf
    4410:	c642                	sw	a6,12(sp)
    4412:	4284                	lw	s1,0(a3)
    4414:	b868                	fsd	fa0,240(s0)
    4416:	68d0                	flw	fa2,20(s1)
    4418:	c341                	beqz	a4,4498 <_aes_encrypt_table+0xd60>
    441a:	4182                	lw	gp,0(sp)
    441c:	b099                	j	3c62 <_aes_encrypt_table+0x52a>
    441e:	9929                	andi	a0,a0,-22
    4420:	772d                	lui	a4,0xfffeb
    4422:	2d5a                	fld	fs10,400(sp)
    4424:	0f1e110f          	0xf1e110f
    4428:	cbb0                	sw	a2,80(a5)
    442a:	fc54b07b          	0xfc54b07b
    442e:	54a8                	lw	a0,104(s1)
    4430:	bb6dd6bb          	0xbb6dd6bb
    4434:	3a16                	fld	fs4,352(sp)
    4436:	162c                	addi	a1,sp,808
    4438:	c6a56363          	bltu	a0,a0,389e <_aes_encrypt_table+0x166>
    443c:	7c7c                	flw	fa5,124(s0)
    443e:	f884                	fsw	fs1,48(s1)
    4440:	ee997777          	0xee997777
    4444:	f68d7b7b          	0xf68d7b7b
    4448:	f2f2                	fsw	ft8,100(sp)
    444a:	ff0d                	bnez	a4,4384 <_aes_encrypt_table+0xc4c>
    444c:	d6bd6b6b          	0xd6bd6b6b
    4450:	deb16f6f          	jal	t5,fff1b23a <__BSS_END__+0xfff157d6>
    4454:	c5c5                	beqz	a1,44fc <_aes_encrypt_table+0xdc4>
    4456:	9154                	0x9154
    4458:	3030                	fld	fa2,96(s0)
    445a:	6050                	flw	fa2,4(s0)
    445c:	0101                	addi	sp,sp,0
    445e:	67670203          	lb	tp,1654(a4) # fffeb676 <__BSS_END__+0xfffe5c12>
    4462:	cea9                	beqz	a3,44bc <_aes_encrypt_table+0xd84>
    4464:	567d2b2b          	0x567d2b2b
    4468:	fefe                	fsw	ft11,124(sp)
    446a:	e719                	bnez	a4,4478 <_aes_encrypt_table+0xd40>
    446c:	b562d7d7          	0xb562d7d7
    4470:	4de6abab          	0x4de6abab
    4474:	7676                	flw	fa2,124(sp)
    4476:	ec9a                	fsw	ft6,88(sp)
    4478:	caca                	sw	s2,84(sp)
    447a:	8f45                	or	a4,a4,s1
    447c:	8282                	jr	t0
    447e:	1f9d                	addi	t6,t6,-25
    4480:	c9c9                	beqz	a1,4512 <_aes_encrypt_table+0xdda>
    4482:	8940                	0x8940
    4484:	7d7d                	lui	s10,0xfffff
    4486:	fafafa87          	0xfafafa87
    448a:	ef15                	bnez	a4,44c6 <_aes_encrypt_table+0xd8e>
    448c:	5959                	li	s2,-10
    448e:	4747b2eb          	0x4747b2eb
    4492:	8ec9                	or	a3,a3,a0
    4494:	f0f0                	fsw	fa2,100(s1)
    4496:	adadfb0b          	0xadadfb0b
    449a:	41ec                	lw	a1,68(a1)
    449c:	d4d4                	sw	a3,44(s1)
    449e:	a2a2b367          	0xa2a2b367
    44a2:	5ffd                	li	t6,-1
    44a4:	45eaafaf          	amoor.w.aq	t6,t5,(s5)
    44a8:	9c9c                	0x9c9c
    44aa:	a4a423bf 727253f7 	0x727253f7a4a423bf
    44b2:	e496                	fsw	ft5,72(sp)
    44b4:	c0c0                	sw	s0,4(s1)
    44b6:	b7b79b5b          	0xb7b79b5b
    44ba:	75c2                	flw	fa1,48(sp)
    44bc:	fdfd                	bnez	a1,44ba <_aes_encrypt_table+0xd82>
    44be:	e11c                	fsw	fa5,0(a0)
    44c0:	3dae9393          	0x3dae9393
    44c4:	2626                	fld	fa2,72(sp)
    44c6:	4c6a                	lw	s8,152(sp)
    44c8:	3636                	fld	fa2,360(sp)
    44ca:	6c5a                	flw	fs8,148(sp)
    44cc:	7e413f3f f502f7f7 	0xf502f7f77e413f3f
    44d4:	cccc                	sw	a1,28(s1)
    44d6:	3434834f          	0x3434834f
    44da:	685c                	flw	fa5,20(s0)
    44dc:	a5a5                	j	4b44 <mtable+0x30c>
    44de:	51f4                	lw	a3,100(a1)
    44e0:	e5e5                	bnez	a1,45c8 <_aes_encrypt_table+0xe90>
    44e2:	d134                	sw	a3,96(a0)
    44e4:	f1f1                	bnez	a1,44a8 <_aes_encrypt_table+0xd70>
    44e6:	f908                	fsw	fa0,48(a0)
    44e8:	7171                	addi	sp,sp,-176
    44ea:	d8d8e293          	ori	t0,a7,-627
    44ee:	3131ab73          	csrrs	s6,0x313,gp
    44f2:	15156253          	0x15156253
    44f6:	04042a3f c7c7080c 	0xc7c7080c04042a3f
    44fe:	9552                	add	a0,a0,s4
    4500:	46652323          	sw	t1,1126(a0)
    4504:	9d5ec3c3          	0x9d5ec3c3
    4508:	1818                	addi	a4,sp,48
    450a:	3028                	fld	fa0,96(s0)
    450c:	9696                	add	a3,a3,t0
    450e:	37a1                	jal	4456 <_aes_encrypt_table+0xd1e>
    4510:	0505                	addi	a0,a0,1
    4512:	9a9a0a0f          	0x9a9a0a0f
    4516:	2fb5                	jal	4c92 <rcon.2170+0x5a>
    4518:	0e090707          	0xe090707
    451c:	1212                	slli	tp,tp,0x24
    451e:	2436                	fld	fs0,328(sp)
    4520:	8080                	0x8080
    4522:	e2e21b9b          	0xe2e21b9b
    4526:	df3d                	beqz	a4,44a4 <_aes_encrypt_table+0xd6c>
    4528:	cd26ebeb          	0xcd26ebeb
    452c:	4e692727          	fsw	ft6,1262(s2) # 172e7742 <__BSS_END__+0x172e1cde>
    4530:	b2b2                	fsd	fa2,352(sp)
    4532:	7fcd                	lui	t6,0xffff3
    4534:	7575                	lui	a0,0xffffd
    4536:	ea9f 0909 121b      	0x121b0909ea9f
    453c:	1d9e8383          	lb	t2,473(t4)
    4540:	2c2c                	fld	fa1,88(s0)
    4542:	5874                	lw	a3,116(s0)
    4544:	1a1a                	slli	s4,s4,0x26
    4546:	342e                	fld	fs0,232(sp)
    4548:	362d1b1b          	0x362d1b1b
    454c:	6e6e                	flw	ft8,216(sp)
    454e:	dcb2                	sw	a2,120(sp)
    4550:	5a5a                	lw	s4,180(sp)
    4552:	b4ee                	fsd	fs11,104(sp)
    4554:	a0a0                	fsd	fs0,64(s1)
    4556:	52525bfb          	0x52525bfb
    455a:	a4f6                	fsd	ft9,72(sp)
    455c:	764d3b3b          	0x764d3b3b
    4560:	d6d6                	sw	s5,108(sp)
    4562:	b761                	j	44ea <_aes_encrypt_table+0xdb2>
    4564:	7dceb3b3          	0x7dceb3b3
    4568:	2929                	jal	4982 <mtable+0x14a>
    456a:	e3e3527b          	0xe3e3527b
    456e:	dd3e                	sw	a5,184(sp)
    4570:	5e712f2f          	0x5e712f2f
    4574:	8484                	0x8484
    4576:	53531397          	auipc	t2,0x53531
    457a:	a6f5                	j	4966 <mtable+0x12e>
    457c:	d1d1                	beqz	a1,4500 <_aes_encrypt_table+0xdc8>
    457e:	b968                	fsd	fa0,240(a0)
    4580:	0000                	unimp
    4582:	0000                	unimp
    4584:	eded                	bnez	a1,467e <_aes_encrypt_table+0xf46>
    4586:	c12c                	sw	a1,64(a0)
    4588:	2020                	fld	fs0,64(s0)
    458a:	4060                	lw	s0,68(s0)
    458c:	fcfc                	fsw	fa5,124(s1)
    458e:	e31f b1b1 79c8      	0x79c8b1b1e31f
    4594:	b6ed5b5b          	0xb6ed5b5b
    4598:	6a6a                	flw	fs4,152(sp)
    459a:	d4be                	sw	a5,104(sp)
    459c:	8d46cbcb          	0x8d46cbcb
    45a0:	bebe                	fsd	fa5,376(sp)
    45a2:	67d9                	lui	a5,0x16
    45a4:	3939                	jal	41c2 <_aes_encrypt_table+0xa8a>
    45a6:	4a4a724b          	fnmsub.d	ft4,fs4,ft4,fs1
    45aa:	94de                	add	s1,s1,s7
    45ac:	4c4c                	lw	a1,28(s0)
    45ae:	98d4                	0x98d4
    45b0:	5858                	lw	a4,52(s0)
    45b2:	b0e8                	fsd	fa0,224(s1)
    45b4:	854acfcf          	0x854acfcf
    45b8:	d0d0                	sw	a2,36(s1)
    45ba:	efefbb6b          	0xefefbb6b
    45be:	c52a                	sw	a0,136(sp)
    45c0:	aaaa                	fsd	fa0,336(sp)
    45c2:	4fe5                	li	t6,25
    45c4:	ed16fbfb          	0xed16fbfb
    45c8:	86c54343          	fmadd.q	ft6,fa0,fa2,fa6,rmm
    45cc:	4d4d                	li	s10,19
    45ce:	33339ad7          	0x33339ad7
    45d2:	6655                	lui	a2,0x15
    45d4:	8585                	srai	a1,a1,0x1
    45d6:	1194                	addi	a3,sp,224
    45d8:	4545                	li	a0,17
    45da:	f9f98acf          	fnmadd.s	fs5,fs3,ft11,ft11,rne
    45de:	e910                	fsw	fa2,16(a0)
    45e0:	0202                	c.slli64	tp
    45e2:	0406                	slli	s0,s0,0x1
    45e4:	7f7f                	0x7f7f
    45e6:	fe81                	bnez	a3,44fe <_aes_encrypt_table+0xdc6>
    45e8:	5050                	lw	a2,36(s0)
    45ea:	a0f0                	fsd	fa2,192(s1)
    45ec:	3c3c                	fld	fa5,120(s0)
    45ee:	7844                	flw	fs1,52(s0)
    45f0:	9f9f 25ba a8a8      	0xa8a825ba9f9f
    45f6:	51514be3          	blt	sp,s5,530c <impure_data+0xdc>
    45fa:	a3a3a2f3          	csrrs	t0,0xa3a,t2
    45fe:	5dfe                	lw	s11,252(sp)
    4600:	4040                	lw	s0,4(s0)
    4602:	80c0                	0x80c0
    4604:	058a8f8f          	0x58a8f8f
    4608:	9292                	add	t0,t0,tp
    460a:	3fad                	jal	4584 <_aes_encrypt_table+0xe4c>
    460c:	9d9d                	0x9d9d
    460e:	21bc                	fld	fa5,64(a1)
    4610:	3838                	fld	fa4,112(s0)
    4612:	7048                	flw	fa0,36(s0)
    4614:	f5f5                	bnez	a1,4600 <_aes_encrypt_table+0xec8>
    4616:	f104                	fsw	fs1,32(a0)
    4618:	bcbc                	fsd	fa5,120(s1)
    461a:	63df b6b6 77c1      	0x77c1b6b663df
    4620:	dada                	sw	s6,116(sp)
    4622:	af75                	j	4dde <rcon.2170+0x1a6>
    4624:	2121                	jal	4a2c <mtable+0x1f4>
    4626:	10104263          	bgtz	ra,472a <_aes_encrypt_table+0xff2>
    462a:	2030                	fld	fa2,64(s0)
    462c:	ffff                	0xffff
    462e:	e51a                	fsw	ft6,136(sp)
    4630:	fd0ef3f3          	csrrci	t2,0xfd0,29
    4634:	d2d2                	sw	s4,100(sp)
    4636:	bf6d                	j	45f0 <_aes_encrypt_table+0xeb8>
    4638:	cdcd                	beqz	a1,46f2 <_aes_encrypt_table+0xfba>
    463a:	814c                	0x814c
    463c:	0c0c                	addi	a1,sp,528
    463e:	1814                	addi	a3,sp,48
    4640:	26351313          	0x26351313
    4644:	ecec                	fsw	fa1,92(s1)
    4646:	5f5fc32f          	0x5f5fc32f
    464a:	bee1                	j	4222 <_aes_encrypt_table+0xaea>
    464c:	35a29797          	auipc	a5,0x35a29
    4650:	4444                	lw	s1,12(s0)
    4652:	88cc                	0x88cc
    4654:	2e391717          	auipc	a4,0x2e391
    4658:	c4c4                	sw	s1,12(s1)
    465a:	a7a79357          	0xa7a79357
    465e:	55f2                	lw	a1,60(sp)
    4660:	7e7e                	flw	ft8,252(sp)
    4662:	fc82                	fsw	ft0,120(sp)
    4664:	3d3d                	jal	44a2 <_aes_encrypt_table+0xd6a>
    4666:	64647a47          	0x64647a47
    466a:	c8ac                	sw	a1,80(s1)
    466c:	5d5d                	li	s10,-9
    466e:	1919bae7          	0x1919bae7
    4672:	7373322b          	0x7373322b
    4676:	e695                	bnez	a3,46a2 <_aes_encrypt_table+0xf6a>
    4678:	6060                	flw	fs0,68(s0)
    467a:	c0a0                	sw	s0,64(s1)
    467c:	8181                	c.srli64	a1
    467e:	1998                	addi	a4,sp,240
    4680:	9ed14f4f          	fnmadd.q	ft10,ft2,fa3,fs3,rmm
    4684:	dcdc                	sw	a5,60(s1)
    4686:	a37f                	0xa37f
    4688:	2222                	fld	ft4,8(sp)
    468a:	4466                	lw	s0,88(sp)
    468c:	2a2a                	fld	fs4,136(sp)
    468e:	547e                	lw	s0,252(sp)
    4690:	9090                	0x9090
    4692:	88883bab          	0x88883bab
    4696:	46460b83          	lb	s7,1124(a2) # 15464 <__BSS_END__+0xfa00>
    469a:	8cca                	mv	s9,s2
    469c:	eeee                	fsw	fs11,92(sp)
    469e:	c729                	beqz	a4,46e8 <_aes_encrypt_table+0xfb0>
    46a0:	b8b8                	fsd	fa4,112(s1)
    46a2:	14146bd3          	0x14146bd3
    46a6:	283c                	fld	fa5,80(s0)
    46a8:	dede                	sw	s7,124(sp)
    46aa:	a779                	j	4e38 <rcon.2170+0x200>
    46ac:	5e5e                	lw	t3,244(sp)
    46ae:	bce2                	fsd	fs8,120(sp)
    46b0:	161d0b0b          	0x161d0b0b
    46b4:	ad76dbdb          	0xad76dbdb
    46b8:	e0e0                	fsw	fs0,68(s1)
    46ba:	3232db3b          	0x3232db3b
    46be:	6456                	flw	fs0,84(sp)
    46c0:	3a3a                	fld	fs4,424(sp)
    46c2:	744e                	flw	fs0,240(sp)
    46c4:	0a0a                	slli	s4,s4,0x2
    46c6:	141e                	slli	s0,s0,0x27
    46c8:	4949                	li	s2,18
    46ca:	060692db          	0x60692db
    46ce:	0c0a                	slli	s8,s8,0x2
    46d0:	2424                	fld	fs1,72(s0)
    46d2:	486c                	lw	a1,84(s0)
    46d4:	5c5c                	lw	a5,60(s0)
    46d6:	b8e4                	fsd	fs1,240(s1)
    46d8:	c2c2                	sw	a6,68(sp)
    46da:	9f5d                	0x9f5d
    46dc:	bd6ed3d3          	0xbd6ed3d3
    46e0:	acac                	fsd	fa1,88(s1)
    46e2:	626243ef          	jal	t2,28d08 <__BSS_END__+0x232a4>
    46e6:	c4a6                	sw	s1,72(sp)
    46e8:	9191                	srli	a1,a1,0x24
    46ea:	39a8                	fld	fa0,112(a1)
    46ec:	9595                	srai	a1,a1,0x25
    46ee:	31a4                	fld	fs1,96(a1)
    46f0:	e4e4                	fsw	fs1,76(s1)
    46f2:	7979d337          	lui	t1,0x7979d
    46f6:	e7e7f28b          	0xe7e7f28b
    46fa:	d532                	sw	a2,168(sp)
    46fc:	c8c8                	sw	a0,20(s1)
    46fe:	37378b43          	fmadd.q	fs6,fa5,fs3,ft6,rne
    4702:	6e59                	lui	t3,0x16
    4704:	6d6d                	lui	s10,0x1b
    4706:	8d8ddab7          	lui	s5,0x8d8dd
    470a:	018c                	addi	a1,sp,192
    470c:	d5d5                	beqz	a1,46b8 <_aes_encrypt_table+0xf80>
    470e:	b164                	fsd	fs1,224(a0)
    4710:	4e4e                	lw	t3,208(sp)
    4712:	9cd2                	add	s9,s9,s4
    4714:	a9a9                	j	4b6e <mtable+0x336>
    4716:	49e0                	lw	s0,84(a1)
    4718:	6c6c                	flw	fa1,92(s0)
    471a:	d8b4                	sw	a3,112(s1)
    471c:	5656                	lw	a2,116(sp)
    471e:	acfa                	fsd	ft10,88(sp)
    4720:	f4f4                	fsw	fa3,108(s1)
    4722:	eaeaf307          	0xeaeaf307
    4726:	cf25                	beqz	a4,479e <_aes_encrypt_table+0x1066>
    4728:	6565                	lui	a0,0x19
    472a:	7a7acaaf          	0x7a7acaaf
    472e:	f48e                	fsw	ft3,104(sp)
    4730:	aeae                	fsd	fa1,344(sp)
    4732:	47e9                	li	a5,26
    4734:	0808                	addi	a0,sp,16
    4736:	1018                	addi	a4,sp,32
    4738:	baba                	fsd	fa4,368(sp)
    473a:	6fd5                	lui	t6,0x15
    473c:	7878                	flw	fa4,116(s0)
    473e:	f088                	fsw	fa0,32(s1)
    4740:	2525                	jal	4d68 <rcon.2170+0x130>
    4742:	2e2e4a6f          	jal	s4,e8a24 <__BSS_END__+0xe2fc0>
    4746:	5c72                	lw	s8,60(sp)
    4748:	1c1c                	addi	a5,sp,560
    474a:	3824                	fld	fs1,112(s0)
    474c:	a6a6                	fsd	fs1,328(sp)
    474e:	57f1                	li	a5,-4
    4750:	b4b4                	fsd	fa3,104(s1)
    4752:	c6c673c7          	fmsub.q	ft7,fa2,fa2,fs8
    4756:	9751                	srai	a4,a4,0x34
    4758:	e8e8                	fsw	fa0,84(s1)
    475a:	ddddcb23          	0xddddcb23
    475e:	a17c                	fsd	fa5,192(a0)
    4760:	7474                	flw	fa3,108(s0)
    4762:	e89c                	fsw	fa5,16(s1)
    4764:	1f1f 3e21 4b4b      	0x4b4b3e211f1f
    476a:	96dd                	srai	a3,a3,0x37
    476c:	bdbd                	j	45ea <_aes_encrypt_table+0xeb2>
    476e:	61dc                	flw	fa5,4(a1)
    4770:	0d868b8b          	0xd868b8b
    4774:	8a8a                	mv	s5,sp
    4776:	0f85                	addi	t6,t6,1
    4778:	7070                	flw	fa2,100(s0)
    477a:	e090                	fsw	fa2,0(s1)
    477c:	3e3e                	fld	ft8,488(sp)
    477e:	7c42                	flw	fs8,48(sp)
    4780:	b5b5                	j	45ec <_aes_encrypt_table+0xeb4>
    4782:	71c4                	flw	fs1,36(a1)
    4784:	6666                	flw	fa2,88(sp)
    4786:	ccaa                	sw	a0,88(sp)
    4788:	4848                	lw	a0,20(s0)
    478a:	90d8                	0x90d8
    478c:	06050303          	lb	t1,96(a0) # 19060 <__BSS_END__+0x135fc>
    4790:	f6f6                	fsw	ft9,108(sp)
    4792:	f701                	bnez	a4,469a <_aes_encrypt_table+0xf62>
    4794:	0e0e                	slli	t3,t3,0x3
    4796:	1c12                	slli	s8,s8,0x24
    4798:	6161                	addi	sp,sp,80
    479a:	3535c2a3          	0x3535c2a3
    479e:	6a5f 5757 aef9      	0xaef957576a5f
    47a4:	b9b9                	j	4402 <_aes_encrypt_table+0xcca>
    47a6:	69d0                	flw	fa2,20(a1)
    47a8:	8686                	mv	a3,ra
    47aa:	1791                	addi	a5,a5,-28
    47ac:	c1c1                	beqz	a1,482c <_aes_encrypt_table+0x10f4>
    47ae:	9958                	0x9958
    47b0:	1d1d                	addi	s10,s10,-25
    47b2:	9e9e3a27          	fsd	fs1,-1548(t3) # 159f4 <__BSS_END__+0xff90>
    47b6:	27b9                	jal	4f04 <rcon.2170+0x2cc>
    47b8:	e1e1                	bnez	a1,4878 <mtable+0x40>
    47ba:	d938                	sw	a4,112(a0)
    47bc:	f8f8                	fsw	fa4,116(s1)
    47be:	9898eb13          	ori	s6,a7,-1655
    47c2:	11112bb3          	0x11112bb3
    47c6:	69692233          	0x69692233
    47ca:	d9d9d2bb          	0xd9d9d2bb
    47ce:	a970                	fsd	fa2,208(a0)
    47d0:	8e8e                	mv	t4,gp
    47d2:	0789                	addi	a5,a5,2
    47d4:	9494                	0x9494
    47d6:	9b9b33a7          	fsd	fs9,-1625(s6) # fffe99a7 <__BSS_END__+0xfffe3f43>
    47da:	2db6                	fld	fs11,328(sp)
    47dc:	1e1e                	slli	t3,t3,0x27
    47de:	3c22                	fld	fs8,40(sp)
    47e0:	15928787          	0x15928787
    47e4:	e9e9                	bnez	a1,48b6 <mtable+0x7e>
    47e6:	c920                	sw	s0,80(a0)
    47e8:	cece                	sw	s3,92(sp)
    47ea:	8749                	srai	a4,a4,0x12
    47ec:	5555                	li	a0,-11
    47ee:	aaff                	0xaaff
    47f0:	2828                	fld	fa0,80(s0)
    47f2:	5078                	lw	a4,100(s0)
    47f4:	dfdf a57a 8c8c      	0x8c8ca57adfdf
    47fa:	a1a1038f          	0xa1a1038f
    47fe:	59f8                	lw	a4,116(a1)
    4800:	8989                	andi	a1,a1,2
    4802:	0980                	addi	s0,sp,208
    4804:	0d0d                	addi	s10,s10,3
    4806:	bfbf1a17          	auipc	s4,0xbfbf1
    480a:	65da                	flw	fa1,148(sp)
    480c:	e6e6                	fsw	fs9,76(sp)
    480e:	d731                	beqz	a4,475a <_aes_encrypt_table+0x1022>
    4810:	4242                	lw	tp,16(sp)
    4812:	84c6                	mv	s1,a7
    4814:	6868                	flw	fa0,84(s0)
    4816:	d0b8                	sw	a4,96(s1)
    4818:	4141                	li	sp,16
    481a:	999982c3          	fmadd.s	ft5,fs3,fs9,fs3,rne
    481e:	29b0                	fld	fa2,80(a1)
    4820:	2d2d                	jal	4e5a <rcon.2170+0x222>
    4822:	0f0f5a77          	0xf0f5a77
    4826:	1e11                	addi	t3,t3,-28
    4828:	b0b0                	fsd	fa2,96(s1)
    482a:	54547bcb          	0x54547bcb
    482e:	a8fc                	fsd	fa5,208(s1)
    4830:	6dd6bbbb          	0x6dd6bbbb
    4834:	1616                	slli	a2,a2,0x25
    4836:	2c3a                	fld	fs8,392(sp)

00004838 <mtable>:
    4838:	0000                	unimp
    483a:	0000                	unimp
    483c:	090e                	slli	s2,s2,0x3
    483e:	0b0d                	addi	s6,s6,3
    4840:	121c                	addi	a5,sp,288
    4842:	161a                	slli	a2,a2,0x26
    4844:	1b12                	slli	s6,s6,0x24
    4846:	24381d17          	auipc	s10,0x24381
    484a:	2c34                	fld	fa3,88(s0)
    484c:	2d36                	fld	fs10,328(sp)
    484e:	2739                	jal	4f5c <rcon.2170+0x324>
    4850:	3624                	fld	fs1,104(a2)
    4852:	3a2e                	fld	fs4,232(sp)
    4854:	3f2a                	fld	ft10,168(sp)
    4856:	48703123          	0x48703123
    485a:	5868                	lw	a0,116(s0)
    485c:	417e                	lw	sp,220(sp)
    485e:	5365                	li	t1,-7
    4860:	5a6c                	lw	a1,116(a2)
    4862:	4e72                	lw	t3,28(sp)
    4864:	5362                	lw	t1,56(sp)
    4866:	457f                	0x457f
    4868:	6c48                	flw	fa0,28(s0)
    486a:	745c                	flw	fa5,44(s0)
    486c:	6546                	flw	fa0,80(sp)
    486e:	7f51                	lui	t5,0xffff4
    4870:	7e54                	flw	fa3,60(a2)
    4872:	6246                	flw	ft4,80(sp)
    4874:	775a                	flw	fa4,180(sp)
    4876:	90e0694b          	fnmsub.s	fs2,ft0,fa4,fs2,unknown
    487a:	b0d0                	fsd	fa2,160(s1)
    487c:	99ee                	add	s3,s3,s11
    487e:	bbdd                	j	4674 <_aes_encrypt_table+0xf3c>
    4880:	82fc                	0x82fc
    4882:	a6ca                	fsd	fs2,328(sp)
    4884:	8bf2                	mv	s7,t3
    4886:	b4d8adc7          	0xb4d8adc7
    488a:	9ce4                	0x9ce4
    488c:	bdd6                	fsd	fs5,248(sp)
    488e:	97e9                	srai	a5,a5,0x3a
    4890:	a6c4                	fsd	fs1,136(a3)
    4892:	8afe                	mv	s5,t6
    4894:	afca                	fsd	fs2,472(sp)
    4896:	d89081f3          	0xd89081f3
    489a:	e8b8                	fsw	fa4,80(s1)
    489c:	d19e                	sw	t2,224(sp)
    489e:	e3b5                	bnez	a5,4902 <mtable+0xca>
    48a0:	ca8c                	sw	a1,16(a3)
    48a2:	fea2                	fsw	fs0,124(sp)
    48a4:	c382                	sw	zero,196(sp)
    48a6:	fca8f5af          	0xfca8f5af
    48aa:	c48c                	sw	a1,8(s1)
    48ac:	f5a6                	fsw	fs1,232(sp)
    48ae:	cf81                	beqz	a5,48c6 <mtable+0x8e>
    48b0:	eeb4                	fsw	fa3,88(a3)
    48b2:	d296                	sw	t0,100(sp)
    48b4:	e7ba                	fsw	fa4,204(sp)
    48b6:	3bdbd99b          	0x3bdbd99b
    48ba:	32d57bbb          	0x32d57bbb
    48be:	70b6                	flw	ft1,108(sp)
    48c0:	6da129c7          	0x6da129c7
    48c4:	20c9                	jal	4986 <mtable+0x14e>
    48c6:	66ac                	flw	fa1,72(a3)
    48c8:	578f1fe3          	bne	t5,s8,5646 <impure_data+0x416>
    48cc:	16ed                	addi	a3,a3,-5
    48ce:	5c82                	lw	s9,32(sp)
    48d0:	0dff                	0xdff
    48d2:	4195                	li	gp,5
    48d4:	04f1                	addi	s1,s1,28
    48d6:	4a98                	lw	a4,16(a3)
    48d8:	23d373ab          	0x23d373ab
    48dc:	7aa5                	lui	s5,0xfffe9
    48de:	28de                	fld	fa7,464(sp)
    48e0:	35c961b7          	lui	gp,0x35c96
    48e4:	68b9                	lui	a7,0xe
    48e6:	3ec4                	fld	fs1,184(a3)
    48e8:	0fe75793          	0xfe75793
    48ec:	5e9d                	li	t4,-25
    48ee:	04ea                	slli	s1,s1,0x1a
    48f0:	19fd458f          	0x19fd458f
    48f4:	4c81                	li	s9,0
    48f6:	12f0                	addi	a2,sp,364
    48f8:	cb6bab3b          	0xcb6bab3b
    48fc:	a235                	j	4a28 <mtable+0x1f0>
    48fe:	c066                	sw	s9,0(sp)
    4900:	dd71b927          	fsd	fs7,-558(gp) # 35c95dd2 <__BSS_END__+0x35c9036e>
    4904:	b029                	j	410e <_aes_encrypt_table+0x9d6>
    4906:	d67c                	sw	a5,108(a2)
    4908:	e75f8f03          	lb	t5,-395(t6) # 14e75 <__BSS_END__+0xf411>
    490c:	860d                	srai	a2,a2,0x3
    490e:	ec52                	fsw	fs4,24(sp)
    4910:	9d1f f145 9411      	0x9411f1459d1f
    4916:	fa48                	fsw	fa0,52(a2)
    4918:	9303e34b          	fnmsub.d	ft6,ft7,fa6,fs2,unknown
    491c:	ea45                	bnez	a2,49cc <mtable+0x194>
    491e:	980e                	add	a6,a6,gp
    4920:	8519f157          	0x8519f157
    4924:	f859                	bnez	s0,48ba <mtable+0x82>
    4926:	8e14                	0x8e14
    4928:	bf37c773          	0xbf37c773
    492c:	ce7d                	beqz	a2,4a2a <mtable+0x1f2>
    492e:	b43a                	fsd	fa4,40(sp)
    4930:	a92dd56f          	jal	a0,fffe1bc2 <__BSS_END__+0xfffdc15e>
    4934:	dc61                	beqz	s0,490c <mtable+0xd4>
    4936:	a220                	fsd	fs0,64(a2)
    4938:	76ad                	lui	a3,0xfffeb
    493a:	f66d                	bnez	a2,4924 <mtable+0xec>
    493c:	fd607fa3          	0xfd607fa3
    4940:	64b1                	lui	s1,0xc
    4942:	6dbfe077          	0x6dbfe077
    4946:	eb7a                	fsw	ft10,148(sp)
    4948:	5295                	li	t0,-27
    494a:	da59                	beqz	a2,48e0 <mtable+0xa8>
    494c:	d1545b9b          	0xd1545b9b
    4950:	4089                	li	ra,2
    4952:	4987cc43          	fmadd.s	fs8,fa5,fs8,fs1,rmm
    4956:	c74e                	sw	s3,140(sp)
    4958:	3edd                	jal	454e <_aes_encrypt_table+0xe16>
    495a:	ae05                	j	4c8a <rcon.2170+0x52>
    495c:	a50837d3          	0xa50837d3
    4960:	2cc1                	jal	4c30 <mtable+0x3f8>
    4962:	b81f 25cf b312      	0xb31225cfb81f
    4968:	1ae5                	addi	s5,s5,-7
    496a:	8231                	srli	a2,a2,0xc
    496c:	893c13eb          	0x893c13eb
    4970:	08f9                	addi	a7,a7,30
    4972:	01f7942b          	0x1f7942b
    4976:	9f26                	add	t5,t5,s1
    4978:	e64d                	bnez	a2,4a22 <mtable+0x1ea>
    497a:	46bd                	li	a3,15
    497c:	4db0ef43          	0x4db0ef43
    4980:	f451                	bnez	s0,490c <mtable+0xd4>
    4982:	fd5f50a7          	0xfd5f50a7
    4986:	5baa                	lw	s7,168(sp)
    4988:	c275                	beqz	a2,4a6c <mtable+0x234>
    498a:	6a89                	lui	s5,0x2
    498c:	6184cb7b          	0x6184cb7b
    4990:	d069                	beqz	s0,4952 <mtable+0x11a>
    4992:	d9677c93          	andi	s9,a4,-618
    4996:	779e                	flw	fa5,228(sp)
    4998:	ae3d                	j	4cd6 <rcon.2170+0x9e>
    499a:	1ed5                	addi	t4,t4,-11
    499c:	15d8a733          	0x15d8a733
    49a0:	bc21                	j	43b8 <_aes_encrypt_table+0xc80>
    49a2:	b52f08cf          	0xb52f08cf
    49a6:	03c2                	slli	t2,t2,0x10
    49a8:	8a05                	andi	a2,a2,1
    49aa:	32e1                	jal	4372 <_aes_encrypt_table+0xc3a>
    49ac:	39ec830b          	0x39ec830b
    49b0:	9819                	andi	s0,s0,-26
    49b2:	911724fb          	0x911724fb
    49b6:	2ff6                	fld	ft11,344(sp)
    49b8:	4d76                	lw	s10,92(sp)
    49ba:	8dd6                	mv	s11,s5
    49bc:	4478                	lw	a4,76(s0)
    49be:	5f6a86db          	0x5f6a86db
    49c2:	9bcc                	0x9bcc
    49c4:	5664                	lw	s1,108(a2)
    49c6:	90c1                	srli	s1,s1,0x30
    49c8:	694e                	flw	fs2,208(sp)
    49ca:	a1e2                	fsd	fs8,192(sp)
    49cc:	6040                	flw	fs0,4(s0)
    49ce:	7b52aaef          	jal	s5,2f982 <__BSS_END__+0x29f1e>
    49d2:	b7f8                	fsd	fa4,232(a5)
    49d4:	725c                	flw	fa5,36(a2)
    49d6:	bcf5                	j	44d2 <_aes_encrypt_table+0xd9a>
    49d8:	0506                	slli	a0,a0,0x1
    49da:	d5be                	sw	a5,232(sp)
    49dc:	0c08                	addi	a0,sp,528
    49de:	171adeb3          	0x171adeb3
    49e2:	c3a4                	sw	s1,64(a5)
    49e4:	1e14                	addi	a3,sp,816
    49e6:	c8a9                	beqz	s1,4a38 <mtable+0x200>
    49e8:	213e                	fld	ft2,456(sp)
    49ea:	f98a                	fsw	ft2,240(sp)
    49ec:	2830                	fld	fa2,80(s0)
    49ee:	3322f287          	0x3322f287
    49f2:	ef90                	fsw	fa2,24(a5)
    49f4:	3a2c                	fld	fa1,112(a2)
    49f6:	e49d                	bnez	s1,4a24 <mtable+0x1ec>
    49f8:	dd96                	sw	t0,248(sp)
    49fa:	3d06                	fld	fs10,96(sp)
    49fc:	d498                	sw	a4,40(s1)
    49fe:	cf8a360b          	0xcf8a360b
    4a02:	2b1c                	fld	fa5,16(a4)
    4a04:	c684                	sw	s1,8(a3)
    4a06:	2011                	jal	4a0a <mtable+0x1d2>
    4a08:	f9ae                	fsw	fa1,240(sp)
    4a0a:	1132                	slli	sp,sp,0x2c
    4a0c:	f0a0                	fsw	fs0,96(s1)
    4a0e:	ebb21a3f e2bc0728 	0xe2bc0728ebb21a3f
    4a16:	0c25                	addi	s8,s8,9
    4a18:	95e6                	add	a1,a1,s9
    4a1a:	656e                	flw	fa0,216(sp)
    4a1c:	9ce8                	0x9ce8
    4a1e:	87fa6e63          	bltu	s4,t6,3a9a <_aes_encrypt_table+0x362>
    4a22:	7374                	flw	fa3,100(a4)
    4a24:	8ef4                	0x8ef4
    4a26:	7879                	lui	a6,0xffffe
    4a28:	b1de                	fsd	fs7,224(sp)
    4a2a:	495a                	lw	s2,148(sp)
    4a2c:	b8d0                	fsd	fa2,176(s1)
    4a2e:	a3c24257          	0xa3c24257
    4a32:	5f40                	lw	s0,60(a4)
    4a34:	aacc                	fsd	fa1,144(a3)
    4a36:	544d                	li	s0,-13
    4a38:	ec41                	bnez	s0,4ad0 <mtable+0x298>
    4a3a:	f7da                	fsw	fs6,236(sp)
    4a3c:	fcd7e54f          	0xfcd7e54f
    4a40:	fe5d                	bnez	a2,49fe <mtable+0x1c6>
    4a42:	e1c0                	fsw	fs0,4(a1)
    4a44:	eacdf753          	0xeacdf753
    4a48:	c879                	beqz	s0,4b1e <mtable+0x2e6>
    4a4a:	dbee                	sw	s11,244(sp)
    4a4c:	d0e3c177          	0xd0e3c177
    4a50:	da65                	beqz	a2,4a40 <mtable+0x208>
    4a52:	cdf4                	sw	a3,92(a1)
    4a54:	c6f9d36b          	0xc6f9d36b
    4a58:	a431                	j	4c64 <rcon.2170+0x2c>
    4a5a:	afb2                	fsd	fa2,472(sp)
    4a5c:	a4bfad3f b9a8b62d 	0xb9a8b62da4bfad3f
    4a64:	b2a5bf23          	0xb2a5bf23
    4a68:	8009                	srli	s0,s0,0x2
    4a6a:	8386                	mv	t2,ra
    4a6c:	888b8907          	0x888b8907
    4a70:	9215                	srli	a2,a2,0x25
    4a72:	959c                	0x959c
    4a74:	9e919b1b          	0x9e919b1b
    4a78:	7ca1                	lui	s9,0xfffe8
    4a7a:	470a                	lw	a4,128(sp)
    4a7c:	4c0775af          	0x4c0775af
    4a80:	6ebd                	lui	t4,0xf
    4a82:	5110                	lw	a2,32(a0)
    4a84:	5a1d67b3          	0x5a1d67b3
    4a88:	5899                	li	a7,-26
    4a8a:	6b3e                	flw	fs6,204(sp)
    4a8c:	60335197          	auipc	gp,0x60335
    4a90:	4a85                	li	s5,1
    4a92:	7d24                	flw	fs1,120(a0)
    4a94:	7629438b          	0x7629438b
    4a98:	34d1                	jal	455c <_aes_encrypt_table+0xe24>
    4a9a:	1f62                	slli	t5,t5,0x38
    4a9c:	3ddf 146f 26cd      	0x26cd146f3ddf
    4aa2:	0978                	addi	a4,sp,156
    4aa4:	02752fc3          	fmadd.d	ft11,fa0,ft7,ft0,rdn
    4aa8:	10e9                	addi	ra,ra,-6
    4aaa:	3356                	fld	ft6,368(sp)
    4aac:	385b19e7          	0x385b19e7
    4ab0:	02f5                	addi	t0,t0,29
    4ab2:	254c                	fld	fa1,136(a0)
    4ab4:	2e410bfb          	0x2e410bfb
    4ab8:	d79a                	sw	t1,236(sp)
    4aba:	8c61                	and	s0,s0,s0
    4abc:	de94                	sw	a3,56(a3)
    4abe:	876c                	0x876c
    4ac0:	c586                	sw	ra,200(sp)
    4ac2:	cc889a7b          	0xcc889a7b
    4ac6:	9176                	add	sp,sp,t4
    4ac8:	f3a2                	fsw	fs0,228(sp)
    4aca:	a055                	j	4b6e <mtable+0x336>
    4acc:	faac                	fsw	fa1,112(a3)
    4ace:	ab58                	fsd	fa4,144(a4)
    4ad0:	e1be                	fsw	fa5,192(sp)
    4ad2:	e8b0b64f          	fnmadd.s	fa2,ft1,fa1,ft9,rup
    4ad6:	bd42                	fsd	fa6,184(sp)
    4ad8:	9fea                	add	t6,t6,s10
    4ada:	d409                	beqz	s0,49e4 <mtable+0x1ac>
    4adc:	96e4                	0x96e4
    4ade:	df04                	sw	s1,56(a4)
    4ae0:	8df6                	mv	s11,t4
    4ae2:	84f8c213          	xori	tp,a7,-1969
    4ae6:	c91e                	sw	t2,144(sp)
    4ae8:	bbd2                	fsd	fs4,496(sp)
    4aea:	f83d                	bnez	s0,4a60 <mtable+0x228>
    4aec:	b2dc                	fsd	fa5,160(a3)
    4aee:	f330                	fsw	fa2,96(a4)
    4af0:	a9ce                	fsd	fs3,208(sp)
    4af2:	a0c0ee27          	0xa0c0ee27
    4af6:	e52a                	fsw	fa0,136(sp)
    4af8:	477a                	lw	a4,156(sp)
    4afa:	3cb1                	jal	4556 <_aes_encrypt_table+0xe1e>
    4afc:	4e74                	lw	a3,92(a2)
    4afe:	37bc                	fld	fa5,104(a5)
    4b00:	5566                	lw	a0,120(sp)
    4b02:	5c682aab          	0x5c682aab
    4b06:	21a6                	fld	ft3,72(sp)
    4b08:	6342                	flw	ft6,16(sp)
    4b0a:	1085                	addi	ra,ra,-31
    4b0c:	6a4c                	flw	fa1,20(a2)
    4b0e:	1b88                	addi	a0,sp,496
    4b10:	715e                	flw	ft2,244(sp)
    4b12:	069f 7850 0d92      	0xd927850069f
    4b18:	0f0a                	slli	t5,t5,0x2
    4b1a:	64d9                	lui	s1,0x16
    4b1c:	0604                	addi	s1,sp,768
    4b1e:	6fd4                	flw	fa3,28(a5)
    4b20:	1d16                	slli	s10,s10,0x25
    4b22:	141872c3          	0x141872c3
    4b26:	79ce                	flw	fs3,240(sp)
    4b28:	2b32                	fld	fs6,264(sp)
    4b2a:	48ed                	li	a7,27
    4b2c:	223c                	fld	fa5,64(a2)
    4b2e:	43e0                	lw	s0,68(a5)
    4b30:	392e                	fld	fs2,232(sp)
    4b32:	30205ef7          	0x30205ef7
    4b36:	55fa                	lw	a1,188(sp)
    4b38:	9aec                	0x9aec
    4b3a:	93e201b7          	lui	gp,0x93e20
    4b3e:	0aba                	slli	s5,s5,0xe
    4b40:	88f0                	0x88f0
    4b42:	17ad                	addi	a5,a5,-21
    4b44:	81fe                	mv	gp,t6
    4b46:	1ca0                	addi	s0,sp,632
    4b48:	bed4                	fsd	fa3,184(a3)
    4b4a:	b7da2d83          	lw	s11,-1155(s4) # bfbf5383 <__BSS_END__+0xbfbef91f>
    4b4e:	268e                	fld	fa3,192(sp)
    4b50:	acc8                	fsd	fa0,152(s1)
    4b52:	3b99                	jal	48a8 <mtable+0x70>
    4b54:	a5c6                	fsd	fa7,200(sp)
    4b56:	3094                	fld	fa3,32(s1)
    4b58:	d29c                	sw	a5,32(a3)
    4b5a:	59df db92 52d2      	0x52d2db9259df
    4b60:	c080                	sw	s0,0(s1)
    4b62:	4fc5                	li	t6,17
    4b64:	c98e                	sw	gp,208(sp)
    4b66:	44c8                	lw	a0,12(s1)
    4b68:	f6a4                	fsw	fs1,104(a3)
    4b6a:	ffaa75eb          	0xffaa75eb
    4b6e:	7ee6                	flw	ft9,120(sp)
    4b70:	e4b8                	fsw	fa4,72(s1)
    4b72:	63f1                	lui	t2,0x1c
    4b74:	edb6                	fsw	fa3,216(sp)
    4b76:	68fc                	flw	fa5,84(s1)
    4b78:	0a0c                	addi	a1,sp,272
    4b7a:	0302b167          	0x302b167
    4b7e:	ba6a                	fsd	fs10,304(sp)
    4b80:	1810                	addi	a2,sp,48
    4b82:	a77d                	j	5330 <impure_data+0x100>
    4b84:	111e                	slli	sp,sp,0x27
    4b86:	ac70                	fsd	fa2,216(s0)
    4b88:	2e34                	fld	fa3,88(a2)
    4b8a:	273a9d53          	fsgnjn.q	fs10,fs5,fs3
    4b8e:	965e                	add	a2,a2,s7
    4b90:	3c28                	fld	fa0,120(s0)
    4b92:	8b49                	andi	a4,a4,18
    4b94:	3526                	fld	fa0,104(sp)
    4b96:	8044                	0x8044
    4b98:	427c                	lw	a5,68(a2)
    4b9a:	4b72e90f          	0x4b72e90f
    4b9e:	e202                	fsw	ft0,4(sp)
    4ba0:	5060                	lw	s0,100(s0)
    4ba2:	ff15                	bnez	a4,4ade <mtable+0x2a6>
    4ba4:	596e                	lw	s2,248(sp)
    4ba6:	f418                	fsw	fa4,40(s0)
    4ba8:	6644                	flw	fs1,12(a2)
    4baa:	6f4ac53b          	0x6f4ac53b
    4bae:	ce36                	sw	a3,28(sp)
    4bb0:	7458                	flw	fa4,44(s0)
    4bb2:	d321                	beqz	a4,4af2 <mtable+0x2ba>
    4bb4:	7d56                	flw	fs10,116(sp)
    4bb6:	d82c                	sw	a1,112(s0)
    4bb8:	7a0ca137          	lui	sp,0x7a0ca
    4bbc:	a839                	j	4bda <mtable+0x3a2>
    4bbe:	7101                	addi	sp,sp,-512
    4bc0:	6c16b32b          	0x6c16b32b
    4bc4:	ba25                	j	44fc <_aes_encrypt_table+0xdc4>
    4bc6:	850f671b          	0x850f671b
    4bca:	5638                	lw	a4,104(a2)
    4bcc:	8c01                	sub	s0,s0,s0
    4bce:	5d35                	li	s10,-19
    4bd0:	40229713          	0x40229713
    4bd4:	9e1d                	0x9e1d
    4bd6:	e9474b2f          	0xe9474b2f
    4bda:	2264                	fld	fs1,192(a2)
    4bdc:	e049                	bnez	s0,4c5e <rcon.2170+0x26>
    4bde:	2969                	jal	5078 <expected+0x68>
    4be0:	347efb5b          	0x347efb5b
    4be4:	f255                	bnez	a2,4b88 <mtable+0x350>
    4be6:	cd7f3f73          	csrrc	t5,0xcd7,t5
    4bea:	0e50                	addi	a2,sp,788
    4bec:	c471                	beqz	s0,4cb8 <rcon.2170+0x80>
    4bee:	055d                	addi	a0,a0,23
    4bf0:	184adf63          	bge	s5,tp,4d8e <rcon.2170+0x156>
    4bf4:	d66d                	beqz	a2,4bde <mtable+0x3a6>
    4bf6:	31d71347          	fmsub.s	ft6,fa4,ft9,ft6,rtz
    4bfa:	cadc                	sw	a5,20(a3)
    4bfc:	38d9                	jal	44d2 <_aes_encrypt_table+0xd9a>
    4bfe:	c1d1                	beqz	a1,4c82 <rcon.2170+0x4a>
    4c00:	dcc623cb          	0xdcc623cb
    4c04:	2ac5                	jal	4df4 <rcon.2170+0x1bc>
    4c06:	15efd7cb          	0x15efd7cb
    4c0a:	e6e8                	fsw	fa0,76(a3)
    4c0c:	1ce1                	addi	s9,s9,-8
    4c0e:	ede5                	bnez	a1,4d06 <rcon.2170+0xce>
    4c10:	f0f207f3          	0xf0f207f3
    4c14:	0efd                	addi	t4,t4,31
    4c16:	fbff                	0xfbff
    4c18:	92b479a7          	0x92b479a7
    4c1c:	70a9                	lui	ra,0xfffea
    4c1e:	99b9                	andi	a1,a1,-18
    4c20:	84ae6bbb          	0x84ae6bbb
    4c24:	62b5                	lui	t0,0xd
    4c26:	5d9f8fa3          	sb	s9,1503(t6)
    4c2a:	be80                	fsd	fs0,56(a3)
    4c2c:	5491                	li	s1,-28
    4c2e:	b58d                	j	4a90 <mtable+0x258>
    4c30:	a89a4f83          	lbu	t6,-1399(s4)
    4c34:	468d                	li	a3,3
    4c36:	          	auipc	t2,0x201a

00004c38 <rcon.2170>:
    4c38:	0201                	addi	tp,tp,0
    4c3a:	0804                	addi	s1,sp,16
    4c3c:	2010                	fld	fa2,0(s0)
    4c3e:	8040                	0x8040
    4c40:	          	0x361b

Disassembly of section .eh_frame:

00005000 <__FRAME_END__>:
    5000:	0000                	unimp
	...

Disassembly of section .init_array:

00005004 <__init_array_start>:
    5004:	10c4                	addi	s1,sp,100
	...

00005008 <__frame_dummy_init_array_entry>:
    5008:	1174                	addi	a3,sp,172
	...

Disassembly of section .fini_array:

0000500c <__do_global_dtors_aux_fini_array_entry>:
    500c:	1128                	addi	a0,sp,168
	...

Disassembly of section .data:

00005010 <expected>:
    5010:	1000170f          	0x1000170f
    5014:	f97f8207          	0xf97f8207
    5018:	da45                	beqz	a2,4fc8 <rcon.2170+0x390>
    501a:	0e15                	addi	t3,t3,5
    501c:	9454                	0x9454
    501e:	9f74228f          	0x9f74228f
    5022:	1a58cd03          	lbu	s10,421(a7) # e1a5 <__BSS_END__+0x8741>
    5026:	6bb2                	flw	fs7,12(sp)
    5028:	689a                	flw	fa7,132(sp)
    502a:	e705                	bnez	a4,5052 <expected+0x42>
    502c:	ad751fcb          	0xad751fcb
    5030:	8551                	srai	a0,a0,0x14
    5032:	a156                	fsd	fs5,128(sp)
    5034:	d8f6                	sw	t4,112(sp)
    5036:	0d9eecb7          	lui	s9,0xd9ee
    503a:	aa7d48c3          	fmadd.d	fa7,fs10,ft7,fs5,rmm
    503e:	1dc299f7          	0x1dc299f7
    5042:	3fea                	fld	ft11,184(sp)
    5044:	84a8db53          	0x84a8db53
    5048:	61ed                	lui	gp,0x1b
    504a:	e7c0                	fsw	fs0,12(a5)
    504c:	ad38                	fsd	fa4,88(a0)
    504e:	b7dc                	fsd	fa5,168(a5)
    5050:	b6c0fa9b          	0xb6c0fa9b
    5054:	7c88                	flw	fa0,56(s1)
    5056:	87f0                	0x87f0
    5058:	2025                	jal	5080 <expected+0x70>
    505a:	0bbc                	addi	a5,sp,472
    505c:	9bb86d03          	0x9bb86d03
    5060:	d310                	sw	a2,32(a4)
    5062:	87a8                	0x87a8
    5064:	ba38                	fsd	fa4,112(a2)
    5066:	024043db          	0x24043db
    506a:	116e890f          	0x116e890f
    506e:	7e69                	lui	t3,0xffffa
    5070:	4a15                	li	s4,5
    5072:	e3c5                	bnez	a5,5112 <key+0x2>
    5074:	7ab1                	lui	s5,0xfffec
    5076:	3b9d                	jal	4dec <rcon.2170+0x1b4>
    5078:	be74                	fsd	fa3,248(a2)
    507a:	5805                	li	a6,-31
    507c:	401e                	0x401e
    507e:	a0831d73          	csrrw	s10,0xa08,t1
    5082:	8945                	andi	a0,a0,17
    5084:	cffc                	sw	a5,92(a5)
    5086:	52a24ec3          	fmadd.d	ft9,ft4,fa0,fa0,rmm
    508a:	2c5e7eef          	jal	t4,ecb4e <__BSS_END__+0xe70ea>
    508e:	3898                	fld	fa4,48(s1)
    5090:	5726                	lw	a4,104(sp)
    5092:	12b4                	addi	a3,sp,360
    5094:	244e                	fld	fs0,208(sp)
    5096:	ac10                	fsd	fa2,24(s0)
    5098:	897c                	0x897c
    509a:	0d42                	slli	s10,s10,0x10
    509c:	af9d                	j	5812 <__global_pointer$+0x2>
    509e:	2f49                	jal	5830 <__global_pointer$+0x20>
    50a0:	60c0                	flw	fs0,4(s1)
    50a2:	4375                	li	t1,29
    50a4:	d1c5                	beqz	a1,5044 <expected+0x34>
    50a6:	fdcc                	fsw	fa1,60(a1)
    50a8:	ae46                	fsd	fa7,280(sp)
    50aa:	384e                	fld	fa6,240(sp)
    50ac:	f3a9                	bnez	a5,4fee <rcon.2170+0x3b6>
    50ae:	fa9f9883          	lh	a7,-87(t6)
    50b2:	150a                	slli	a0,a0,0x22
    50b4:	4605                	li	a2,1
    50b6:	0e2a                	slli	t3,t3,0xa
    50b8:	a8be                	fsd	fa5,80(sp)
    50ba:	2dac                	fld	fa1,88(a1)
    50bc:	2759                	jal	5842 <__global_pointer$+0x32>
    50be:	542e                	lw	s0,232(sp)
    50c0:	7705                	lui	a4,0xfffe1
    50c2:	6452                	flw	fs0,20(sp)
    50c4:	6039                	c.lui	zero,0xe
    50c6:	7cc4                	flw	fs1,60(s1)
    50c8:	13b930a7          	fsd	fs11,289(s2)
    50cc:	37fe1f3b          	0x37fe1f3b
    50d0:	eab0                	fsw	fa2,80(a3)
    50d2:	3dfd                	jal	4fd0 <rcon.2170+0x398>
    50d4:	f27eed83          	0xf27eed83
    50d8:	f2b0                	fsw	fa2,96(a3)
    50da:	860a                	mv	a2,sp
    50dc:	b978                	fsd	fa4,240(a0)
    50de:	1f08                	addi	a0,sp,944
    50e0:	c0ff                	0xc0ff
    50e2:	ad50                	fsd	fa2,152(a0)
    50e4:	92b8                	0x92b8
    50e6:	1968                	addi	a0,sp,188
    50e8:	9c30                	0x9c30
    50ea:	e57e                	fsw	ft11,136(sp)
    50ec:	574c                	lw	a1,44(a4)
    50ee:	a65e                	fsd	fs7,264(sp)
    50f0:	3a58                	fld	fa4,176(a2)
    50f2:	1a807087          	0x1a807087
    50f6:	3be81ecf          	fnmadd.d	ft9,fa6,ft10,ft7,rtz
    50fa:	27e9c643          	fmadd.q	fa2,fs3,ft10,ft4,rmm
    50fe:	589eba47          	fmsub.s	fs4,ft9,fs1,fa1,rup
    5102:	1452                	slli	s0,s0,0x34
    5104:	b7c0                	fsd	fs0,168(a5)
    5106:	77f1                	lui	a5,0xffffc
    5108:	43238f77          	0x43238f77
    510c:	0e49                	addi	t3,t3,18
    510e:	ce24                	sw	s1,88(a2)

00005110 <key>:
    5110:	95c9                	srai	a1,a1,0x32
    5112:	3155                	jal	4db6 <rcon.2170+0x17e>
    5114:	50a6                	lw	ra,104(sp)
    5116:	54d1                	li	s1,-12
    5118:	aac5d87b          	0xaac5d87b
    511c:	a4a4                	fsd	fs1,72(s1)
    511e:	acbd                	j	539c <impure_data+0x16c>
    5120:	ea5c                	fsw	fa5,20(a2)
    5122:	c712                	sw	tp,140(sp)
    5124:	83f8                	0x83f8
    5126:	b8d6                	fsd	fs5,112(sp)
    5128:	d65d                	beqz	a2,50d6 <expected+0xc6>
    512a:	c8602dcf          	fnmadd.s	fs11,ft0,ft6,fs9,rdn
    512e:	f0a5                	bnez	s1,508e <expected+0x7e>

00005130 <plaintext>:
    5130:	8cb37fd7          	0x8cb37fd7
    5134:	2522                	fld	fa0,8(sp)
    5136:	6fc4                	flw	fs1,28(a5)
    5138:	d5b9                	beqz	a1,5086 <expected+0x76>
    513a:	18c9                	addi	a7,a7,-14
    513c:	92c0                	0x92c0
    513e:	08d0                	addi	a2,sp,84
    5140:	2a85                	jal	52b0 <impure_data+0x80>
    5142:	84bd68f3          	csrrsi	a7,0x84b,26
    5146:	8b0cf2af          	0x8b0cf2af
    514a:	1ef5                	addi	t4,t4,-3
    514c:	7051                	c.lui	zero,0xffff4
    514e:	7046                	flw	ft0,112(sp)
    5150:	8b9e                	mv	s7,t2
    5152:	e1de                	fsw	fs7,192(sp)
    5154:	a186                	fsd	ft1,192(sp)
    5156:	cdf8                	sw	a4,92(a1)
    5158:	0271                	addi	tp,tp,28
    515a:	a19f 447b 82b0      	0x82b0447ba19f
    5160:	7f40                	flw	fs0,60(a4)
    5162:	b4ce                	fsd	fs3,104(sp)
    5164:	5dbe                	lw	s11,236(sp)
    5166:	8ebc                	0x8ebc
    5168:	4319                	li	t1,6
    516a:	69463a0b          	0x69463a0b
    516e:	cca0                	sw	s0,88(s1)
    5170:	4fed                	li	t6,27
    5172:	af61                	j	590a <encctx+0x8e>
    5174:	a9a6                	fsd	fs1,208(sp)
    5176:	5169475b          	0x5169475b
    517a:	00d5                	addi	ra,ra,21
    517c:	2ede7e77          	0x2ede7e77
    5180:	a67e                	fsd	ft11,264(sp)
    5182:	e03c                	fsw	fa5,64(s0)
    5184:	40eddf33          	sra	t5,s11,a4
    5188:	e0c71a3f 3be346c7 	0x3be346c7e0c71a3f
    5190:	4e90                	lw	a2,24(a3)
    5192:	5564                	lw	s1,108(a0)
    5194:	8d2e                	mv	s10,a1
    5196:	3b36                	fld	fs6,360(sp)
    5198:	9b92                	add	s7,s7,tp
    519a:	94ae6f87          	0x94ae6f87
    519e:	0a3d                	addi	s4,s4,15
    51a0:	a2c8                	fsd	fa0,128(a3)
    51a2:	7f4e                	flw	ft10,240(sp)
    51a4:	835a                	mv	t1,s6
    51a6:	18ec                	addi	a1,sp,124
    51a8:	82fd                	srli	a3,a3,0x1f
    51aa:	c854                	sw	a3,20(s0)
    51ac:	edd8                	fsw	fa4,28(a1)
    51ae:	521e                	lw	tp,228(sp)
    51b0:	ca7d                	beqz	a2,52a6 <impure_data+0x76>
    51b2:	31ba4bcf          	fnmadd.s	fs7,fs4,fs11,ft6,rmm
    51b6:	b968                	fsd	fa0,240(a0)
    51b8:	a378                	fsd	fa4,192(a4)
    51ba:	4eca                	lw	t4,144(sp)
    51bc:	8672                	mv	a2,t3
    51be:	33b2                	fld	ft7,296(sp)
    51c0:	cb79                	beqz	a4,5296 <impure_data+0x66>
    51c2:	a6cd                	j	55a4 <impure_data+0x374>
    51c4:	fa9ca343          	fmadd.d	ft6,fs9,fs1,ft11,rdn
    51c8:	2aee                	fld	fs5,216(sp)
    51ca:	3bae                	fld	fs7,232(sp)
    51cc:	c672                	sw	t3,12(sp)
    51ce:	3246                	fld	ft4,112(sp)
    51d0:	99a5                	andi	a1,a1,-23
    51d2:	9245                	srli	a2,a2,0x31
    51d4:	7946                	flw	fs2,112(sp)
    51d6:	e3dc                	fsw	fa5,4(a5)
    51d8:	a93e                	fsd	fa5,144(sp)
    51da:	118a                	slli	gp,gp,0x22
    51dc:	e4854937          	lui	s2,0xe4854
    51e0:	1a58                	addi	a4,sp,308
    51e2:	6e1f aad7 0ae6      	0xae6aad76e1f
    51e8:	27c4                	fld	fs1,136(a5)
    51ea:	46fd                	li	a3,31
    51ec:	6c5c                	flw	fa5,28(s0)
    51ee:	28b0                	fld	fa2,80(s1)
    51f0:	6b2e                	flw	fs6,200(sp)
    51f2:	3584                	fld	fs1,40(a1)
    51f4:	1a90                	addi	a2,sp,368
    51f6:	386d                	jal	4ab0 <mtable+0x278>
    51f8:	69f2                	flw	fs3,28(sp)
    51fa:	bc4a                	fsd	fs2,56(sp)
    51fc:	ec96                	fsw	ft5,88(sp)
    51fe:	276556d7          	0x276556d7
    5202:	a6ee                	fsd	fs11,328(sp)
    5204:	5fb0                	lw	a2,120(a5)
    5206:	709c                	flw	fa5,32(s1)
    5208:	a571                	j	5894 <encctx+0x18>
    520a:	6793ec2b          	0x6793ec2b
    520e:	c116                	sw	t0,128(sp)
    5210:	b3c4                	fsd	fs1,160(a5)
    5212:	6db57043          	0x6db57043
    5216:	95ad                	srai	a1,a1,0x2b
    5218:	f041                	bnez	s0,5198 <plaintext+0x68>
    521a:	fc02                	fsw	ft0,56(sp)
    521c:	588d                	li	a7,-29
    521e:	a18e                	fsd	ft3,192(sp)
    5220:	3246                	fld	ft4,112(sp)
    5222:	6834                	flw	fa3,80(s0)
    5224:	8c11                	sub	s0,s0,a2
    5226:	54db3ab3          	0x54db3ab3
    522a:	3abe                	fld	fs5,488(sp)
    522c:	7c2e38b3          	0x7c2e38b3

00005230 <impure_data>:
    5230:	0000                	unimp
    5232:	0000                	unimp
    5234:	551c                	lw	a5,40(a0)
    5236:	0000                	unimp
    5238:	5584                	lw	s1,40(a1)
    523a:	0000                	unimp
    523c:	55ec                	lw	a1,108(a1)
	...
    52d6:	0000                	unimp
    52d8:	0001                	nop
    52da:	0000                	unimp
    52dc:	0000                	unimp
    52de:	0000                	unimp
    52e0:	330e                	fld	ft6,224(sp)
    52e2:	abcd                	j	58d4 <encctx+0x58>
    52e4:	1234                	addi	a3,sp,296
    52e6:	e66d                	bnez	a2,53d0 <impure_data+0x1a0>
    52e8:	deec                	sw	a1,124(a3)
    52ea:	0005                	c.nop	1
    52ec:	0000000b          	0xb
	...

Disassembly of section .sdata:

00005658 <_global_impure_ptr>:
    5658:	5230                	lw	a2,96(a2)
	...

0000565c <_impure_ptr>:
    565c:	5230                	lw	a2,96(a2)
	...

Disassembly of section .bss:

00005660 <completed.5490>:
    5660:	0000                	unimp
	...

00005664 <object.5495>:
	...

0000567c <decrypted>:
	...

0000577c <encrypted>:
	...

0000587c <encctx>:
	...

00005970 <decctx>:
	...

Disassembly of section .comment:

00000000 <.comment>:
   0:	3a434347          	fmsub.d	ft6,ft6,ft4,ft7,rmm
   4:	2820                	fld	fs0,80(s0)
   6:	29554e47          	fmsub.s	ft8,fa0,fs5,ft5,rmm
   a:	3920                	fld	fs0,112(a0)
   c:	322e                	fld	ft4,232(sp)
   e:	302e                	fld	ft0,232(sp)
	...

Disassembly of section .riscv.attributes:

00000000 <.riscv.attributes>:
   0:	2041                	jal	80 <main-0xff4>
   2:	0000                	unimp
   4:	7200                	flw	fs0,32(a2)
   6:	7369                	lui	t1,0xffffa
   8:	01007663          	bgeu	zero,a6,14 <main-0x1060>
   c:	0016                	c.slli	zero,0x5
   e:	0000                	unimp
  10:	1004                	addi	s1,sp,32
  12:	7205                	lui	tp,0xfffe1
  14:	3376                	fld	ft6,376(sp)
  16:	6932                	flw	fs2,12(sp)
  18:	7032                	flw	ft0,44(sp)
  1a:	5f30                	lw	a2,120(a4)
  1c:	326d                	jal	fffff9c6 <__BSS_END__+0xffff9f62>
  1e:	3070                	fld	fa2,224(s0)
	...
